SF:/home/scott/Projects/AgentProof/aegis-compiler/src/ast/nodes.rs
FN:710,_RNCNvXs0_NtNtCs6BFVBPdMni0_14aegis_compiler3ast5nodesNtB7_13QualifiedNameNtNtCsbNKrcpplAYV_4core3fmt7Display3fmt0Bb_
FN:463,_RNvMNtNtCs6BFVBPdMni0_14aegis_compiler3ast5nodesNtB2_11DurationLit9to_millis
FN:700,_RNvMs_NtNtCs6BFVBPdMni0_14aegis_compiler3ast5nodesNtB4_13QualifiedName4last
FN:692,_RNvMs_NtNtCs6BFVBPdMni0_14aegis_compiler3ast5nodesNtB4_13QualifiedName6simple
FN:706,_RNvXs0_NtNtCs6BFVBPdMni0_14aegis_compiler3ast5nodesNtB5_13QualifiedNameNtNtCsbNKrcpplAYV_4core3fmt7Display3fmt
FN:710,_RNCNvXs0_NtNtCsjN0pppA1BUl_14aegis_compiler3ast5nodesNtB7_13QualifiedNameNtNtCsbNKrcpplAYV_4core3fmt7Display3fmt0Bb_
FN:478,_RNvNtNtNtCsjN0pppA1BUl_14aegis_compiler3ast5nodes14duration_tests3dur
FN:488,_RNvNtNtNtCsjN0pppA1BUl_14aegis_compiler3ast5nodes14duration_testss_11zero_millis
FN:508,_RNvNtNtNtCsjN0pppA1BUl_14aegis_compiler3ast5nodes14duration_testss_14days_to_millis
FN:503,_RNvNtNtNtCsjN0pppA1BUl_14aegis_compiler3ast5nodes14duration_testss_15hours_to_millis
FN:498,_RNvNtNtNtCsjN0pppA1BUl_14aegis_compiler3ast5nodes14duration_testss_17minutes_to_millis
FN:493,_RNvNtNtNtCsjN0pppA1BUl_14aegis_compiler3ast5nodes14duration_testss_17seconds_to_millis
FN:483,_RNvNtNtNtCsjN0pppA1BUl_14aegis_compiler3ast5nodes14duration_testss_25milliseconds_pass_through
FN:513,_RNvNtNtNtCsjN0pppA1BUl_14aegis_compiler3ast5nodes14duration_testss_33multi_unit_values_scale_correctly
FN:463,_RNvMNtNtCsjN0pppA1BUl_14aegis_compiler3ast5nodesNtB2_11DurationLit9to_millis
FN:700,_RNvMs_NtNtCsjN0pppA1BUl_14aegis_compiler3ast5nodesNtB4_13QualifiedName4last
FN:692,_RNvMs_NtNtCsjN0pppA1BUl_14aegis_compiler3ast5nodesNtB4_13QualifiedName6simple
FN:706,_RNvXs0_NtNtCsjN0pppA1BUl_14aegis_compiler3ast5nodesNtB5_13QualifiedNameNtNtCsbNKrcpplAYV_4core3fmt7Display3fmt
FN:525,_RNvNtNtNtCsjN0pppA1BUl_14aegis_compiler3ast5nodes20qualified_name_tests5ident
FN:553,_RNvNtNtNtCsjN0pppA1BUl_14aegis_compiler3ast5nodes20qualified_name_testss_22last_on_single_segment
FN:559,_RNvNtNtNtCsjN0pppA1BUl_14aegis_compiler3ast5nodes20qualified_name_testss_24to_string_single_segment
FN:544,_RNvNtNtNtCsjN0pppA1BUl_14aegis_compiler3ast5nodes20qualified_name_testss_26last_returns_final_segment
FN:530,_RNvNtNtNtCsjN0pppA1BUl_14aegis_compiler3ast5nodes20qualified_name_testss_29simple_creates_single_segment
FN:537,_RNvNtNtNtCsjN0pppA1BUl_14aegis_compiler3ast5nodes20qualified_name_testss_30simple_span_matches_ident_span
FN:565,_RNvNtNtNtCsjN0pppA1BUl_14aegis_compiler3ast5nodes20qualified_name_testss_41to_string_multiple_segments_joined_by_dot
FNDA:69,_RNCNvXs0_NtNtCs6BFVBPdMni0_14aegis_compiler3ast5nodesNtB7_13QualifiedNameNtNtCsbNKrcpplAYV_4core3fmt7Display3fmt0Bb_
FNDA:19,_RNvMNtNtCs6BFVBPdMni0_14aegis_compiler3ast5nodesNtB2_11DurationLit9to_millis
FNDA:39,_RNvMs_NtNtCs6BFVBPdMni0_14aegis_compiler3ast5nodesNtB4_13QualifiedName4last
FNDA:50,_RNvMs_NtNtCs6BFVBPdMni0_14aegis_compiler3ast5nodesNtB4_13QualifiedName6simple
FNDA:66,_RNvXs0_NtNtCs6BFVBPdMni0_14aegis_compiler3ast5nodesNtB5_13QualifiedNameNtNtCsbNKrcpplAYV_4core3fmt7Display3fmt
FNDA:4,_RNCNvXs0_NtNtCsjN0pppA1BUl_14aegis_compiler3ast5nodesNtB7_13QualifiedNameNtNtCsbNKrcpplAYV_4core3fmt7Display3fmt0Bb_
FNDA:8,_RNvNtNtNtCsjN0pppA1BUl_14aegis_compiler3ast5nodes14duration_tests3dur
FNDA:1,_RNvNtNtNtCsjN0pppA1BUl_14aegis_compiler3ast5nodes14duration_testss_11zero_millis
FNDA:1,_RNvNtNtNtCsjN0pppA1BUl_14aegis_compiler3ast5nodes14duration_testss_14days_to_millis
FNDA:1,_RNvNtNtNtCsjN0pppA1BUl_14aegis_compiler3ast5nodes14duration_testss_15hours_to_millis
FNDA:1,_RNvNtNtNtCsjN0pppA1BUl_14aegis_compiler3ast5nodes14duration_testss_17minutes_to_millis
FNDA:1,_RNvNtNtNtCsjN0pppA1BUl_14aegis_compiler3ast5nodes14duration_testss_17seconds_to_millis
FNDA:1,_RNvNtNtNtCsjN0pppA1BUl_14aegis_compiler3ast5nodes14duration_testss_25milliseconds_pass_through
FNDA:1,_RNvNtNtNtCsjN0pppA1BUl_14aegis_compiler3ast5nodes14duration_testss_33multi_unit_values_scale_correctly
FNDA:8,_RNvMNtNtCsjN0pppA1BUl_14aegis_compiler3ast5nodesNtB2_11DurationLit9to_millis
FNDA:2,_RNvMs_NtNtCsjN0pppA1BUl_14aegis_compiler3ast5nodesNtB4_13QualifiedName4last
FNDA:4,_RNvMs_NtNtCsjN0pppA1BUl_14aegis_compiler3ast5nodesNtB4_13QualifiedName6simple
FNDA:2,_RNvXs0_NtNtCsjN0pppA1BUl_14aegis_compiler3ast5nodesNtB5_13QualifiedNameNtNtCsbNKrcpplAYV_4core3fmt7Display3fmt
FNDA:9,_RNvNtNtNtCsjN0pppA1BUl_14aegis_compiler3ast5nodes20qualified_name_tests5ident
FNDA:1,_RNvNtNtNtCsjN0pppA1BUl_14aegis_compiler3ast5nodes20qualified_name_testss_22last_on_single_segment
FNDA:1,_RNvNtNtNtCsjN0pppA1BUl_14aegis_compiler3ast5nodes20qualified_name_testss_24to_string_single_segment
FNDA:1,_RNvNtNtNtCsjN0pppA1BUl_14aegis_compiler3ast5nodes20qualified_name_testss_26last_returns_final_segment
FNDA:1,_RNvNtNtNtCsjN0pppA1BUl_14aegis_compiler3ast5nodes20qualified_name_testss_29simple_creates_single_segment
FNDA:1,_RNvNtNtNtCsjN0pppA1BUl_14aegis_compiler3ast5nodes20qualified_name_testss_30simple_span_matches_ident_span
FNDA:1,_RNvNtNtNtCsjN0pppA1BUl_14aegis_compiler3ast5nodes20qualified_name_testss_41to_string_multiple_segments_joined_by_dot
FNF:20
FNH:20
DA:463,27
DA:464,27
DA:465,2
DA:466,4
DA:467,16
DA:468,4
DA:469,1
DA:471,27
DA:478,8
DA:479,8
DA:480,8
DA:483,1
DA:484,1
DA:485,1
DA:488,1
DA:489,1
DA:490,1
DA:493,1
DA:494,1
DA:495,1
DA:498,1
DA:499,1
DA:500,1
DA:503,1
DA:504,1
DA:505,1
DA:508,1
DA:509,1
DA:510,1
DA:513,1
DA:514,1
DA:515,1
DA:516,1
DA:525,9
DA:526,9
DA:527,9
DA:530,1
DA:531,1
DA:532,1
DA:533,1
DA:534,1
DA:537,1
DA:538,1
DA:539,1
DA:540,1
DA:541,1
DA:544,1
DA:545,1
DA:546,1
DA:547,1
DA:548,1
DA:549,1
DA:550,1
DA:553,1
DA:554,1
DA:555,1
DA:556,1
DA:559,1
DA:560,1
DA:561,1
DA:562,1
DA:565,1
DA:566,1
DA:567,1
DA:568,1
DA:569,1
DA:570,1
DA:571,1
DA:692,54
DA:693,54
DA:694,54
DA:695,54
DA:696,54
DA:697,54
DA:698,54
DA:700,41
DA:701,41
DA:702,41
DA:706,68
DA:707,68
DA:708,68
DA:709,68
DA:710,73
DA:711,68
DA:712,68
DA:713,68
DA:714,68
BRF:0
BRH:0
LF:88
LH:88
end_of_record
SF:/home/scott/Projects/AgentProof/aegis-compiler/src/ast/span.rs
FN:45,_RNvMs_NtNtCs6BFVBPdMni0_14aegis_compiler3ast4spanINtB4_7SpannedNtCs1PbeznI62nf_8smol_str7SmolStrE3newB8_
FN:45,_RNvMs_NtNtCs6BFVBPdMni0_14aegis_compiler3ast4spanINtB4_7SpannedNtNtB6_5nodes10ActionVerbE3newB8_
FN:45,_RNvMs_NtNtCs6BFVBPdMni0_14aegis_compiler3ast4spanINtB4_7SpannedNtNtB6_5nodes10RuleClauseE3newB8_
FN:45,_RNvMs_NtNtCs6BFVBPdMni0_14aegis_compiler3ast4spanINtB4_7SpannedNtNtB6_5nodes11DeclarationE3newB8_
FN:45,_RNvMs_NtNtCs6BFVBPdMni0_14aegis_compiler3ast4spanINtB4_7SpannedNtNtB6_5nodes11MatchResultE3newB8_
FN:45,_RNvMs_NtNtCs6BFVBPdMni0_14aegis_compiler3ast4spanINtB4_7SpannedNtNtB6_5nodes12PolicyMemberE3newB8_
FN:45,_RNvMs_NtNtCs6BFVBPdMni0_14aegis_compiler3ast4spanINtB4_7SpannedNtNtB6_5nodes14BlockStatementE3newB8_
FN:45,_RNvMs_NtNtCs6BFVBPdMni0_14aegis_compiler3ast4spanINtB4_7SpannedNtNtB6_5nodes4ExprE3newB8_
FN:45,_RNvMs_NtNtCs6BFVBPdMni0_14aegis_compiler3ast4spanINtB4_7SpannedNtNtB6_5nodes4TypeE3newB8_
FN:45,_RNvMs_NtNtCs6BFVBPdMni0_14aegis_compiler3ast4spanINtB4_7SpannedNtNtB6_5nodes7PatternE3newB8_
FN:45,_RNvMs_NtNtCs6BFVBPdMni0_14aegis_compiler3ast4spanINtB4_7SpannedNtNtB6_5nodes7UnaryOpE3newB8_
FN:45,_RNvMs_NtNtCs6BFVBPdMni0_14aegis_compiler3ast4spanINtB4_7SpannedNtNtB6_5nodes7VerdictE3newB8_
FN:45,_RNvMs_NtNtCs6BFVBPdMni0_14aegis_compiler3ast4spanINtB4_7SpannedNtNtB6_5nodes8BinaryOpE3newB8_
FN:28,_RNvMNtNtCs6BFVBPdMni0_14aegis_compiler3ast4spanNtB2_4Span3len
FN:16,_RNvMNtNtCs6BFVBPdMni0_14aegis_compiler3ast4spanNtB2_4Span3new
FN:21,_RNvMNtNtCs6BFVBPdMni0_14aegis_compiler3ast4spanNtB2_4Span5merge
FN:32,_RNvMNtNtCs6BFVBPdMni0_14aegis_compiler3ast4spanNtB2_4Span8is_empty
FN:162,_RNCNvNtNtNtCsjN0pppA1BUl_14aegis_compiler3ast4span5testss_27spanned_map_can_change_type0B9_
FN:154,_RNCNvNtNtNtCsjN0pppA1BUl_14aegis_compiler3ast4span5testss_42spanned_map_transforms_node_preserves_span0B9_
FN:28,_RNvMNtNtCsjN0pppA1BUl_14aegis_compiler3ast4spanNtB2_4Span3len
FN:16,_RNvMNtNtCsjN0pppA1BUl_14aegis_compiler3ast4spanNtB2_4Span3new
FN:21,_RNvMNtNtCsjN0pppA1BUl_14aegis_compiler3ast4spanNtB2_4Span5merge
FN:32,_RNvMNtNtCsjN0pppA1BUl_14aegis_compiler3ast4spanNtB2_4Span8is_empty
FN:56,_RINvMs_NtNtCsjN0pppA1BUl_14aegis_compiler3ast4spanINtB5_7SpannedlE3maplNCNvNtB5_5testss_42spanned_map_transforms_node_preserves_span0EB9_
FN:56,_RINvMs_NtNtCsjN0pppA1BUl_14aegis_compiler3ast4spanINtB5_7SpannedmE3mapNtNtCs3BtblC6bdc8_5alloc6string6StringNCNvNtB5_5testss_27spanned_map_can_change_type0EB9_
FN:45,_RNvMs_NtNtCsjN0pppA1BUl_14aegis_compiler3ast4spanINtB4_7SpannedNtCs1PbeznI62nf_8smol_str7SmolStrE3newB8_
FN:49,_RNvMs_NtNtCsjN0pppA1BUl_14aegis_compiler3ast4spanINtB4_7SpannedNtCs1PbeznI62nf_8smol_str7SmolStrE5dummyB8_
FN:49,_RNvMs_NtNtCsjN0pppA1BUl_14aegis_compiler3ast4spanINtB4_7SpannedReE5dummyB8_
FN:45,_RNvMs_NtNtCsjN0pppA1BUl_14aegis_compiler3ast4spanINtB4_7SpannedlE3newB8_
FN:45,_RNvMs_NtNtCsjN0pppA1BUl_14aegis_compiler3ast4spanINtB4_7SpannedmE3newB8_
FN:78,_RNvNtNtNtCsjN0pppA1BUl_14aegis_compiler3ast4span5testss_23span_dummy_is_zero_zero
FN:123,_RNvNtNtNtCsjN0pppA1BUl_14aegis_compiler3ast4span5testss_23span_merge_is_symmetric
FN:90,_RNvNtNtNtCsjN0pppA1BUl_14aegis_compiler3ast4span5testss_24span_len_zero_when_empty
FN:71,_RNvNtNtNtCsjN0pppA1BUl_14aegis_compiler3ast4span5testss_24span_new_captures_bounds
FN:114,_RNvNtNtNtCsjN0pppA1BUl_14aegis_compiler3ast4span5testss_26span_merge_non_overlapping
FN:84,_RNvNtNtNtCsjN0pppA1BUl_14aegis_compiler3ast4span5testss_27span_len_returns_difference
FN:160,_RNvNtNtNtCsjN0pppA1BUl_14aegis_compiler3ast4span5testss_27spanned_map_can_change_type
FN:145,_RNvNtNtNtCsjN0pppA1BUl_14aegis_compiler3ast4span5testss_29spanned_dummy_uses_dummy_span
FN:130,_RNvNtNtNtCsjN0pppA1BUl_14aegis_compiler3ast4span5testss_32span_merge_with_self_is_identity
FN:138,_RNvNtNtNtCsjN0pppA1BUl_14aegis_compiler3ast4span5testss_32spanned_new_stores_node_and_span
FN:95,_RNvNtNtNtCsjN0pppA1BUl_14aegis_compiler3ast4span5testss_35span_is_empty_when_start_equals_end
FN:100,_RNvNtNtNtCsjN0pppA1BUl_14aegis_compiler3ast4span5testss_36span_is_not_empty_when_start_differs
FN:152,_RNvNtNtNtCsjN0pppA1BUl_14aegis_compiler3ast4span5testss_42spanned_map_transforms_node_preserves_span
FN:105,_RNvNtNtNtCsjN0pppA1BUl_14aegis_compiler3ast4span5testss_45span_merge_overlapping_produces_bounding_span
FN:49,_RNvMs_NtNtCs6BFVBPdMni0_14aegis_compiler3ast4spanINtB4_7SpannedNtCs1PbeznI62nf_8smol_str7SmolStrE5dummyCs8ZMHIhjG428_13checker_tests
FN:49,_RNvMs_NtNtCs6BFVBPdMni0_14aegis_compiler3ast4spanINtB4_7SpannedNtNtB6_5nodes10RuleClauseE5dummyCs8ZMHIhjG428_13checker_tests
FN:49,_RNvMs_NtNtCs6BFVBPdMni0_14aegis_compiler3ast4spanINtB4_7SpannedNtNtB6_5nodes11DeclarationE5dummyCs8ZMHIhjG428_13checker_tests
FN:49,_RNvMs_NtNtCs6BFVBPdMni0_14aegis_compiler3ast4spanINtB4_7SpannedNtNtB6_5nodes12PolicyMemberE5dummyCs8ZMHIhjG428_13checker_tests
FN:49,_RNvMs_NtNtCs6BFVBPdMni0_14aegis_compiler3ast4spanINtB4_7SpannedNtNtB6_5nodes4ExprE5dummyCs8ZMHIhjG428_13checker_tests
FN:49,_RNvMs_NtNtCs6BFVBPdMni0_14aegis_compiler3ast4spanINtB4_7SpannedNtNtB6_5nodes4TypeE5dummyCs8ZMHIhjG428_13checker_tests
FN:49,_RNvMs_NtNtCs6BFVBPdMni0_14aegis_compiler3ast4spanINtB4_7SpannedNtNtB6_5nodes7UnaryOpE5dummyCs8ZMHIhjG428_13checker_tests
FN:49,_RNvMs_NtNtCs6BFVBPdMni0_14aegis_compiler3ast4spanINtB4_7SpannedNtNtB6_5nodes7VerdictE5dummyCs8ZMHIhjG428_13checker_tests
FN:49,_RNvMs_NtNtCs6BFVBPdMni0_14aegis_compiler3ast4spanINtB4_7SpannedNtNtB6_5nodes8BinaryOpE5dummyCs8ZMHIhjG428_13checker_tests
FN:49,_RNvMs_NtNtCs6BFVBPdMni0_14aegis_compiler3ast4spanINtB4_7SpannedNtCs1PbeznI62nf_8smol_str7SmolStrE5dummyCsbt0oq0QWAnb_14lowering_tests
FN:49,_RNvMs_NtNtCs6BFVBPdMni0_14aegis_compiler3ast4spanINtB4_7SpannedNtNtB6_5nodes10RuleClauseE5dummyCsbt0oq0QWAnb_14lowering_tests
FN:49,_RNvMs_NtNtCs6BFVBPdMni0_14aegis_compiler3ast4spanINtB4_7SpannedNtNtB6_5nodes11DeclarationE5dummyCsbt0oq0QWAnb_14lowering_tests
FN:49,_RNvMs_NtNtCs6BFVBPdMni0_14aegis_compiler3ast4spanINtB4_7SpannedNtNtB6_5nodes11MatchResultE5dummyCsbt0oq0QWAnb_14lowering_tests
FN:49,_RNvMs_NtNtCs6BFVBPdMni0_14aegis_compiler3ast4spanINtB4_7SpannedNtNtB6_5nodes12PolicyMemberE5dummyCsbt0oq0QWAnb_14lowering_tests
FN:49,_RNvMs_NtNtCs6BFVBPdMni0_14aegis_compiler3ast4spanINtB4_7SpannedNtNtB6_5nodes4ExprE5dummyCsbt0oq0QWAnb_14lowering_tests
FN:49,_RNvMs_NtNtCs6BFVBPdMni0_14aegis_compiler3ast4spanINtB4_7SpannedNtNtB6_5nodes7PatternE5dummyCsbt0oq0QWAnb_14lowering_tests
FN:49,_RNvMs_NtNtCs6BFVBPdMni0_14aegis_compiler3ast4spanINtB4_7SpannedNtNtB6_5nodes7UnaryOpE5dummyCsbt0oq0QWAnb_14lowering_tests
FN:49,_RNvMs_NtNtCs6BFVBPdMni0_14aegis_compiler3ast4spanINtB4_7SpannedNtNtB6_5nodes7VerdictE5dummyCsbt0oq0QWAnb_14lowering_tests
FNDA:331,_RNvMs_NtNtCs6BFVBPdMni0_14aegis_compiler3ast4spanINtB4_7SpannedNtCs1PbeznI62nf_8smol_str7SmolStrE3newB8_
FNDA:5,_RNvMs_NtNtCs6BFVBPdMni0_14aegis_compiler3ast4spanINtB4_7SpannedNtNtB6_5nodes10ActionVerbE3newB8_
FNDA:52,_RNvMs_NtNtCs6BFVBPdMni0_14aegis_compiler3ast4spanINtB4_7SpannedNtNtB6_5nodes10RuleClauseE3newB8_
FNDA:113,_RNvMs_NtNtCs6BFVBPdMni0_14aegis_compiler3ast4spanINtB4_7SpannedNtNtB6_5nodes11DeclarationE3newB8_
FNDA:16,_RNvMs_NtNtCs6BFVBPdMni0_14aegis_compiler3ast4spanINtB4_7SpannedNtNtB6_5nodes11MatchResultE3newB8_
FNDA:82,_RNvMs_NtNtCs6BFVBPdMni0_14aegis_compiler3ast4spanINtB4_7SpannedNtNtB6_5nodes12PolicyMemberE3newB8_
FNDA:7,_RNvMs_NtNtCs6BFVBPdMni0_14aegis_compiler3ast4spanINtB4_7SpannedNtNtB6_5nodes14BlockStatementE3newB8_
FNDA:2030,_RNvMs_NtNtCs6BFVBPdMni0_14aegis_compiler3ast4spanINtB4_7SpannedNtNtB6_5nodes4ExprE3newB8_
FNDA:35,_RNvMs_NtNtCs6BFVBPdMni0_14aegis_compiler3ast4spanINtB4_7SpannedNtNtB6_5nodes4TypeE3newB8_
FNDA:37,_RNvMs_NtNtCs6BFVBPdMni0_14aegis_compiler3ast4spanINtB4_7SpannedNtNtB6_5nodes7PatternE3newB8_
FNDA:2,_RNvMs_NtNtCs6BFVBPdMni0_14aegis_compiler3ast4spanINtB4_7SpannedNtNtB6_5nodes7UnaryOpE3newB8_
FNDA:29,_RNvMs_NtNtCs6BFVBPdMni0_14aegis_compiler3ast4spanINtB4_7SpannedNtNtB6_5nodes7VerdictE3newB8_
FNDA:30,_RNvMs_NtNtCs6BFVBPdMni0_14aegis_compiler3ast4spanINtB4_7SpannedNtNtB6_5nodes8BinaryOpE3newB8_
FNDA:0,_RNvMNtNtCs6BFVBPdMni0_14aegis_compiler3ast4spanNtB2_4Span3len
FNDA:3538,_RNvMNtNtCs6BFVBPdMni0_14aegis_compiler3ast4spanNtB2_4Span3new
FNDA:40,_RNvMNtNtCs6BFVBPdMni0_14aegis_compiler3ast4spanNtB2_4Span5merge
FNDA:0,_RNvMNtNtCs6BFVBPdMni0_14aegis_compiler3ast4spanNtB2_4Span8is_empty
FNDA:1,_RNCNvNtNtNtCsjN0pppA1BUl_14aegis_compiler3ast4span5testss_27spanned_map_can_change_type0B9_
FNDA:1,_RNCNvNtNtNtCsjN0pppA1BUl_14aegis_compiler3ast4span5testss_42spanned_map_transforms_node_preserves_span0B9_
FNDA:2,_RNvMNtNtCsjN0pppA1BUl_14aegis_compiler3ast4spanNtB2_4Span3len
FNDA:46,_RNvMNtNtCsjN0pppA1BUl_14aegis_compiler3ast4spanNtB2_4Span3new
FNDA:5,_RNvMNtNtCsjN0pppA1BUl_14aegis_compiler3ast4spanNtB2_4Span5merge
FNDA:2,_RNvMNtNtCsjN0pppA1BUl_14aegis_compiler3ast4spanNtB2_4Span8is_empty
FNDA:1,_RINvMs_NtNtCsjN0pppA1BUl_14aegis_compiler3ast4spanINtB5_7SpannedlE3maplNCNvNtB5_5testss_42spanned_map_transforms_node_preserves_span0EB9_
FNDA:1,_RINvMs_NtNtCsjN0pppA1BUl_14aegis_compiler3ast4spanINtB5_7SpannedmE3mapNtNtCs3BtblC6bdc8_5alloc6string6StringNCNvNtB5_5testss_27spanned_map_can_change_type0EB9_
FNDA:1,_RNvMs_NtNtCsjN0pppA1BUl_14aegis_compiler3ast4spanINtB4_7SpannedNtCs1PbeznI62nf_8smol_str7SmolStrE3newB8_
FNDA:9,_RNvMs_NtNtCsjN0pppA1BUl_14aegis_compiler3ast4spanINtB4_7SpannedNtCs1PbeznI62nf_8smol_str7SmolStrE5dummyB8_
FNDA:1,_RNvMs_NtNtCsjN0pppA1BUl_14aegis_compiler3ast4spanINtB4_7SpannedReE5dummyB8_
FNDA:1,_RNvMs_NtNtCsjN0pppA1BUl_14aegis_compiler3ast4spanINtB4_7SpannedlE3newB8_
FNDA:2,_RNvMs_NtNtCsjN0pppA1BUl_14aegis_compiler3ast4spanINtB4_7SpannedmE3newB8_
FNDA:1,_RNvNtNtNtCsjN0pppA1BUl_14aegis_compiler3ast4span5testss_23span_dummy_is_zero_zero
FNDA:1,_RNvNtNtNtCsjN0pppA1BUl_14aegis_compiler3ast4span5testss_23span_merge_is_symmetric
FNDA:1,_RNvNtNtNtCsjN0pppA1BUl_14aegis_compiler3ast4span5testss_24span_len_zero_when_empty
FNDA:1,_RNvNtNtNtCsjN0pppA1BUl_14aegis_compiler3ast4span5testss_24span_new_captures_bounds
FNDA:1,_RNvNtNtNtCsjN0pppA1BUl_14aegis_compiler3ast4span5testss_26span_merge_non_overlapping
FNDA:1,_RNvNtNtNtCsjN0pppA1BUl_14aegis_compiler3ast4span5testss_27span_len_returns_difference
FNDA:1,_RNvNtNtNtCsjN0pppA1BUl_14aegis_compiler3ast4span5testss_27spanned_map_can_change_type
FNDA:1,_RNvNtNtNtCsjN0pppA1BUl_14aegis_compiler3ast4span5testss_29spanned_dummy_uses_dummy_span
FNDA:1,_RNvNtNtNtCsjN0pppA1BUl_14aegis_compiler3ast4span5testss_32span_merge_with_self_is_identity
FNDA:1,_RNvNtNtNtCsjN0pppA1BUl_14aegis_compiler3ast4span5testss_32spanned_new_stores_node_and_span
FNDA:1,_RNvNtNtNtCsjN0pppA1BUl_14aegis_compiler3ast4span5testss_35span_is_empty_when_start_equals_end
FNDA:1,_RNvNtNtNtCsjN0pppA1BUl_14aegis_compiler3ast4span5testss_36span_is_not_empty_when_start_differs
FNDA:1,_RNvNtNtNtCsjN0pppA1BUl_14aegis_compiler3ast4span5testss_42spanned_map_transforms_node_preserves_span
FNDA:1,_RNvNtNtNtCsjN0pppA1BUl_14aegis_compiler3ast4span5testss_45span_merge_overlapping_produces_bounding_span
FNDA:121,_RNvMs_NtNtCs6BFVBPdMni0_14aegis_compiler3ast4spanINtB4_7SpannedNtCs1PbeznI62nf_8smol_str7SmolStrE5dummyCs8ZMHIhjG428_13checker_tests
FNDA:56,_RNvMs_NtNtCs6BFVBPdMni0_14aegis_compiler3ast4spanINtB4_7SpannedNtNtB6_5nodes10RuleClauseE5dummyCs8ZMHIhjG428_13checker_tests
FNDA:56,_RNvMs_NtNtCs6BFVBPdMni0_14aegis_compiler3ast4spanINtB4_7SpannedNtNtB6_5nodes11DeclarationE5dummyCs8ZMHIhjG428_13checker_tests
FNDA:46,_RNvMs_NtNtCs6BFVBPdMni0_14aegis_compiler3ast4spanINtB4_7SpannedNtNtB6_5nodes12PolicyMemberE5dummyCs8ZMHIhjG428_13checker_tests
FNDA:104,_RNvMs_NtNtCs6BFVBPdMni0_14aegis_compiler3ast4spanINtB4_7SpannedNtNtB6_5nodes4ExprE5dummyCs8ZMHIhjG428_13checker_tests
FNDA:9,_RNvMs_NtNtCs6BFVBPdMni0_14aegis_compiler3ast4spanINtB4_7SpannedNtNtB6_5nodes4TypeE5dummyCs8ZMHIhjG428_13checker_tests
FNDA:2,_RNvMs_NtNtCs6BFVBPdMni0_14aegis_compiler3ast4spanINtB4_7SpannedNtNtB6_5nodes7UnaryOpE5dummyCs8ZMHIhjG428_13checker_tests
FNDA:30,_RNvMs_NtNtCs6BFVBPdMni0_14aegis_compiler3ast4spanINtB4_7SpannedNtNtB6_5nodes7VerdictE5dummyCs8ZMHIhjG428_13checker_tests
FNDA:9,_RNvMs_NtNtCs6BFVBPdMni0_14aegis_compiler3ast4spanINtB4_7SpannedNtNtB6_5nodes8BinaryOpE5dummyCs8ZMHIhjG428_13checker_tests
FNDA:297,_RNvMs_NtNtCs6BFVBPdMni0_14aegis_compiler3ast4spanINtB4_7SpannedNtCs1PbeznI62nf_8smol_str7SmolStrE5dummyCsbt0oq0QWAnb_14lowering_tests
FNDA:75,_RNvMs_NtNtCs6BFVBPdMni0_14aegis_compiler3ast4spanINtB4_7SpannedNtNtB6_5nodes10RuleClauseE5dummyCsbt0oq0QWAnb_14lowering_tests
FNDA:125,_RNvMs_NtNtCs6BFVBPdMni0_14aegis_compiler3ast4spanINtB4_7SpannedNtNtB6_5nodes11DeclarationE5dummyCsbt0oq0QWAnb_14lowering_tests
FNDA:5,_RNvMs_NtNtCs6BFVBPdMni0_14aegis_compiler3ast4spanINtB4_7SpannedNtNtB6_5nodes11MatchResultE5dummyCsbt0oq0QWAnb_14lowering_tests
FNDA:94,_RNvMs_NtNtCs6BFVBPdMni0_14aegis_compiler3ast4spanINtB4_7SpannedNtNtB6_5nodes12PolicyMemberE5dummyCsbt0oq0QWAnb_14lowering_tests
FNDA:125,_RNvMs_NtNtCs6BFVBPdMni0_14aegis_compiler3ast4spanINtB4_7SpannedNtNtB6_5nodes4ExprE5dummyCsbt0oq0QWAnb_14lowering_tests
FNDA:8,_RNvMs_NtNtCs6BFVBPdMni0_14aegis_compiler3ast4spanINtB4_7SpannedNtNtB6_5nodes7PatternE5dummyCsbt0oq0QWAnb_14lowering_tests
FNDA:1,_RNvMs_NtNtCs6BFVBPdMni0_14aegis_compiler3ast4spanINtB4_7SpannedNtNtB6_5nodes7UnaryOpE5dummyCsbt0oq0QWAnb_14lowering_tests
FNDA:50,_RNvMs_NtNtCs6BFVBPdMni0_14aegis_compiler3ast4spanINtB4_7SpannedNtNtB6_5nodes7VerdictE5dummyCsbt0oq0QWAnb_14lowering_tests
FNF:23
FNH:23
DA:16,3584
DA:17,3584
DA:18,3584
DA:21,45
DA:22,45
DA:23,45
DA:24,45
DA:25,45
DA:26,45
DA:28,2
DA:29,2
DA:30,2
DA:32,2
DA:33,2
DA:34,2
DA:45,2773
DA:46,2773
DA:47,2773
DA:49,1223
DA:50,1223
DA:51,1223
DA:52,1223
DA:53,1223
DA:54,1223
DA:56,2
DA:57,2
DA:58,2
DA:59,2
DA:60,2
DA:61,2
DA:71,1
DA:72,1
DA:73,1
DA:74,1
DA:75,1
DA:78,1
DA:79,1
DA:80,1
DA:81,1
DA:84,1
DA:85,1
DA:86,1
DA:87,1
DA:90,1
DA:91,1
DA:92,1
DA:95,1
DA:96,1
DA:97,1
DA:100,1
DA:101,1
DA:102,1
DA:105,1
DA:106,1
DA:107,1
DA:108,1
DA:109,1
DA:110,1
DA:111,1
DA:114,1
DA:115,1
DA:116,1
DA:117,1
DA:118,1
DA:119,1
DA:120,1
DA:123,1
DA:124,1
DA:125,1
DA:126,1
DA:127,1
DA:130,1
DA:131,1
DA:132,1
DA:133,1
DA:138,1
DA:139,1
DA:140,1
DA:141,1
DA:142,1
DA:145,1
DA:146,1
DA:147,1
DA:148,1
DA:149,1
DA:152,1
DA:153,1
DA:154,1
DA:155,1
DA:156,1
DA:157,1
DA:160,1
DA:161,1
DA:162,1
DA:163,1
DA:164,1
DA:165,1
BRF:0
BRH:0
LF:99
LH:99
end_of_record
SF:/home/scott/Projects/AgentProof/aegis-compiler/src/bytecode.rs
FN:181,_RNvNtCs6BFVBPdMni0_14aegis_compiler8bytecode10write_file
FN:106,_RNvNtCs6BFVBPdMni0_14aegis_compiler8bytecode11to_bytecode
FN:157,_RNvNtCs6BFVBPdMni0_14aegis_compiler8bytecode13from_bytecode
FN:193,_RNvNtCs6BFVBPdMni0_14aegis_compiler8bytecode14inspect_header
FN:172,_RNvNtCs6BFVBPdMni0_14aegis_compiler8bytecode15to_json_compact
FN:167,_RNvNtCs6BFVBPdMni0_14aegis_compiler8bytecode7to_json
FN:187,_RNvNtCs6BFVBPdMni0_14aegis_compiler8bytecode9read_file
FN:51,_RNvXNtCs6BFVBPdMni0_14aegis_compiler8bytecodeNtB2_13BytecodeErrorINtNtCsbNKrcpplAYV_4core7convert4FromNtNtNtCskbfKHyEss4N_3std2io5error5ErrorE4from
FN:234,_RNvXs0_NtCs6BFVBPdMni0_14aegis_compiler8bytecodeNtB5_8FileInfoNtNtCsbNKrcpplAYV_4core3fmt7Display3fmt
FN:57,_RNvXs_NtCs6BFVBPdMni0_14aegis_compiler8bytecodeNtB4_13BytecodeErrorNtNtCsbNKrcpplAYV_4core3fmt7Display3fmt
FN:117,_RINvNtCs6BFVBPdMni0_14aegis_compiler8bytecode13read_bytecodeINtNtNtCskbfKHyEss4N_3std2io6cursor6CursorRShEEB4_
FN:117,_RINvNtCs6BFVBPdMni0_14aegis_compiler8bytecode13read_bytecodeNtNtCskbfKHyEss4N_3std2fs4FileEB4_
FN:83,_RINvNtCs6BFVBPdMni0_14aegis_compiler8bytecode14write_bytecodeINtNtCs3BtblC6bdc8_5alloc3vec3VechEEB4_
FN:83,_RINvNtCs6BFVBPdMni0_14aegis_compiler8bytecode14write_bytecodeNtNtCskbfKHyEss4N_3std2fs4FileEB4_
FN:151,_RNCINvNtCs6BFVBPdMni0_14aegis_compiler8bytecode13read_bytecodeINtNtNtCskbfKHyEss4N_3std2io6cursor6CursorRShEE0B6_
FN:151,_RNCINvNtCs6BFVBPdMni0_14aegis_compiler8bytecode13read_bytecodeNtNtCskbfKHyEss4N_3std2fs4FileE0B6_
FN:88,_RNCINvNtCs6BFVBPdMni0_14aegis_compiler8bytecode14write_bytecodeINtNtCs3BtblC6bdc8_5alloc3vec3VechEE0B6_
FN:88,_RNCINvNtCs6BFVBPdMni0_14aegis_compiler8bytecode14write_bytecodeNtNtCskbfKHyEss4N_3std2fs4FileE0B6_
FN:173,_RNCNvNtCs6BFVBPdMni0_14aegis_compiler8bytecode15to_json_compact0B5_
FN:168,_RNCNvNtCs6BFVBPdMni0_14aegis_compiler8bytecode7to_json0B5_
FN:181,_RNvNtCsjN0pppA1BUl_14aegis_compiler8bytecode10write_file
FN:193,_RNvNtCsjN0pppA1BUl_14aegis_compiler8bytecode14inspect_header
FN:187,_RNvNtCsjN0pppA1BUl_14aegis_compiler8bytecode9read_file
FN:234,_RNvXs0_NtCsjN0pppA1BUl_14aegis_compiler8bytecodeNtB5_8FileInfoNtNtCsbNKrcpplAYV_4core3fmt7Display3fmt
FN:57,_RNvXs_NtCsjN0pppA1BUl_14aegis_compiler8bytecodeNtB4_13BytecodeErrorNtNtCsbNKrcpplAYV_4core3fmt7Display3fmt
FN:255,_RNvNtNtCsjN0pppA1BUl_14aegis_compiler8bytecode5tests14minimal_policy
FN:313,_RNvNtNtCsjN0pppA1BUl_14aegis_compiler8bytecode5testss_25round_trip_minimal_policy
FN:479,_RNvNtNtCsjN0pppA1BUl_14aegis_compiler8bytecode5testss_25to_json_is_pretty_printed
FN:398,_RNvNtNtCsjN0pppA1BUl_14aegis_compiler8bytecode5testss_26all_magic_bytes_must_match
FN:280,_RNvNtNtCsjN0pppA1BUl_14aegis_compiler8bytecode5testss_27bytecode_version_field_is_1
FN:334,_RNvNtNtCsjN0pppA1BUl_14aegis_compiler8bytecode5testss_27round_trip_preserves_scopes
FN:287,_RNvNtNtCsjN0pppA1BUl_14aegis_compiler8bytecode5testss_28bytecode_flags_field_is_zero
FN:424,_RNvNtNtCsjN0pppA1BUl_14aegis_compiler8bytecode5testss_28empty_input_returns_io_error
FN:324,_RNvNtNtCsjN0pppA1BUl_14aegis_compiler8bytecode5testss_29round_trip_preserves_metadata
FN:342,_RNvNtNtCsjN0pppA1BUl_14aegis_compiler8bytecode5testss_29round_trip_with_state_machine
FN:274,_RNvNtNtCsjN0pppA1BUl_14aegis_compiler8bytecode5testss_32bytecode_starts_with_magic_bytes
FN:429,_RNvNtNtCsjN0pppA1BUl_14aegis_compiler8bytecode5testss_33truncated_header_returns_io_error
FN:362,_RNvNtNtCsjN0pppA1BUl_14aegis_compiler8bytecode5testss_34round_trip_multiple_state_machines
FN:438,_RNvNtNtCsjN0pppA1BUl_14aegis_compiler8bytecode5testss_34truncated_payload_returns_io_error
FN:471,_RNvNtNtCsjN0pppA1BUl_14aegis_compiler8bytecode5testss_35to_json_compact_produces_valid_json
FN:447,_RNvNtNtCsjN0pppA1BUl_14aegis_compiler8bytecode5testss_42corrupted_json_payload_returns_serde_error
FN:302,_RNvNtNtCsjN0pppA1BUl_14aegis_compiler8bytecode5testss_42write_bytecode_returns_total_bytes_written
FN:463,_RNvNtNtCsjN0pppA1BUl_14aegis_compiler8bytecode5testss_44to_json_produces_valid_json_with_policy_name
FN:410,_RNvNtNtCsjN0pppA1BUl_14aegis_compiler8bytecode5testss_45unsupported_version_returns_error_with_values
FN:294,_RNvNtNtCsjN0pppA1BUl_14aegis_compiler8bytecode5testss_46bytecode_payload_length_matches_actual_payload
FN:388,_RNvNtNtCsjN0pppA1BUl_14aegis_compiler8bytecode5testss_46invalid_magic_byte_returns_invalid_magic_error
FN:106,_RNvNtCsjN0pppA1BUl_14aegis_compiler8bytecode11to_bytecode
FN:157,_RNvNtCsjN0pppA1BUl_14aegis_compiler8bytecode13from_bytecode
FN:172,_RNvNtCsjN0pppA1BUl_14aegis_compiler8bytecode15to_json_compact
FN:167,_RNvNtCsjN0pppA1BUl_14aegis_compiler8bytecode7to_json
FN:51,_RNvXNtCsjN0pppA1BUl_14aegis_compiler8bytecodeNtB2_13BytecodeErrorINtNtCsbNKrcpplAYV_4core7convert4FromNtNtNtCskbfKHyEss4N_3std2io5error5ErrorE4from
FN:117,_RINvNtCsjN0pppA1BUl_14aegis_compiler8bytecode13read_bytecodeINtNtNtCskbfKHyEss4N_3std2io6cursor6CursorRShEEB4_
FN:83,_RINvNtCsjN0pppA1BUl_14aegis_compiler8bytecode14write_bytecodeINtNtCs3BtblC6bdc8_5alloc3vec3VechEEB4_
FN:151,_RNCINvNtCsjN0pppA1BUl_14aegis_compiler8bytecode13read_bytecodeINtNtNtCskbfKHyEss4N_3std2io6cursor6CursorRShEE0B6_
FN:88,_RNCINvNtCsjN0pppA1BUl_14aegis_compiler8bytecode14write_bytecodeINtNtCs3BtblC6bdc8_5alloc3vec3VechEE0B6_
FN:173,_RNCNvNtCsjN0pppA1BUl_14aegis_compiler8bytecode15to_json_compact0B5_
FN:168,_RNCNvNtCsjN0pppA1BUl_14aegis_compiler8bytecode7to_json0B5_
FNDA:12,_RNvNtCs6BFVBPdMni0_14aegis_compiler8bytecode10write_file
FNDA:0,_RNvNtCs6BFVBPdMni0_14aegis_compiler8bytecode11to_bytecode
FNDA:0,_RNvNtCs6BFVBPdMni0_14aegis_compiler8bytecode13from_bytecode
FNDA:5,_RNvNtCs6BFVBPdMni0_14aegis_compiler8bytecode14inspect_header
FNDA:0,_RNvNtCs6BFVBPdMni0_14aegis_compiler8bytecode15to_json_compact
FNDA:1,_RNvNtCs6BFVBPdMni0_14aegis_compiler8bytecode7to_json
FNDA:9,_RNvNtCs6BFVBPdMni0_14aegis_compiler8bytecode9read_file
FNDA:1,_RNvXNtCs6BFVBPdMni0_14aegis_compiler8bytecodeNtB2_13BytecodeErrorINtNtCsbNKrcpplAYV_4core7convert4FromNtNtNtCskbfKHyEss4N_3std2io5error5ErrorE4from
FNDA:4,_RNvXs0_NtCs6BFVBPdMni0_14aegis_compiler8bytecodeNtB5_8FileInfoNtNtCsbNKrcpplAYV_4core3fmt7Display3fmt
FNDA:2,_RNvXs_NtCs6BFVBPdMni0_14aegis_compiler8bytecodeNtB4_13BytecodeErrorNtNtCsbNKrcpplAYV_4core3fmt7Display3fmt
FNDA:0,_RINvNtCs6BFVBPdMni0_14aegis_compiler8bytecode13read_bytecodeINtNtNtCskbfKHyEss4N_3std2io6cursor6CursorRShEEB4_
FNDA:9,_RINvNtCs6BFVBPdMni0_14aegis_compiler8bytecode13read_bytecodeNtNtCskbfKHyEss4N_3std2fs4FileEB4_
FNDA:0,_RINvNtCs6BFVBPdMni0_14aegis_compiler8bytecode14write_bytecodeINtNtCs3BtblC6bdc8_5alloc3vec3VechEEB4_
FNDA:12,_RINvNtCs6BFVBPdMni0_14aegis_compiler8bytecode14write_bytecodeNtNtCskbfKHyEss4N_3std2fs4FileEB4_
FNDA:0,_RNCINvNtCs6BFVBPdMni0_14aegis_compiler8bytecode13read_bytecodeINtNtNtCskbfKHyEss4N_3std2io6cursor6CursorRShEE0B6_
FNDA:0,_RNCINvNtCs6BFVBPdMni0_14aegis_compiler8bytecode13read_bytecodeNtNtCskbfKHyEss4N_3std2fs4FileE0B6_
FNDA:0,_RNCINvNtCs6BFVBPdMni0_14aegis_compiler8bytecode14write_bytecodeINtNtCs3BtblC6bdc8_5alloc3vec3VechEE0B6_
FNDA:0,_RNCINvNtCs6BFVBPdMni0_14aegis_compiler8bytecode14write_bytecodeNtNtCskbfKHyEss4N_3std2fs4FileE0B6_
FNDA:0,_RNCNvNtCs6BFVBPdMni0_14aegis_compiler8bytecode15to_json_compact0B5_
FNDA:0,_RNCNvNtCs6BFVBPdMni0_14aegis_compiler8bytecode7to_json0B5_
FNDA:0,_RNvNtCsjN0pppA1BUl_14aegis_compiler8bytecode10write_file
FNDA:0,_RNvNtCsjN0pppA1BUl_14aegis_compiler8bytecode14inspect_header
FNDA:0,_RNvNtCsjN0pppA1BUl_14aegis_compiler8bytecode9read_file
FNDA:0,_RNvXs0_NtCsjN0pppA1BUl_14aegis_compiler8bytecodeNtB5_8FileInfoNtNtCsbNKrcpplAYV_4core3fmt7Display3fmt
FNDA:0,_RNvXs_NtCsjN0pppA1BUl_14aegis_compiler8bytecodeNtB4_13BytecodeErrorNtNtCsbNKrcpplAYV_4core3fmt7Display3fmt
FNDA:21,_RNvNtNtCsjN0pppA1BUl_14aegis_compiler8bytecode5tests14minimal_policy
FNDA:1,_RNvNtNtCsjN0pppA1BUl_14aegis_compiler8bytecode5testss_25round_trip_minimal_policy
FNDA:1,_RNvNtNtCsjN0pppA1BUl_14aegis_compiler8bytecode5testss_25to_json_is_pretty_printed
FNDA:1,_RNvNtNtCsjN0pppA1BUl_14aegis_compiler8bytecode5testss_26all_magic_bytes_must_match
FNDA:1,_RNvNtNtCsjN0pppA1BUl_14aegis_compiler8bytecode5testss_27bytecode_version_field_is_1
FNDA:1,_RNvNtNtCsjN0pppA1BUl_14aegis_compiler8bytecode5testss_27round_trip_preserves_scopes
FNDA:1,_RNvNtNtCsjN0pppA1BUl_14aegis_compiler8bytecode5testss_28bytecode_flags_field_is_zero
FNDA:1,_RNvNtNtCsjN0pppA1BUl_14aegis_compiler8bytecode5testss_28empty_input_returns_io_error
FNDA:1,_RNvNtNtCsjN0pppA1BUl_14aegis_compiler8bytecode5testss_29round_trip_preserves_metadata
FNDA:1,_RNvNtNtCsjN0pppA1BUl_14aegis_compiler8bytecode5testss_29round_trip_with_state_machine
FNDA:1,_RNvNtNtCsjN0pppA1BUl_14aegis_compiler8bytecode5testss_32bytecode_starts_with_magic_bytes
FNDA:1,_RNvNtNtCsjN0pppA1BUl_14aegis_compiler8bytecode5testss_33truncated_header_returns_io_error
FNDA:1,_RNvNtNtCsjN0pppA1BUl_14aegis_compiler8bytecode5testss_34round_trip_multiple_state_machines
FNDA:1,_RNvNtNtCsjN0pppA1BUl_14aegis_compiler8bytecode5testss_34truncated_payload_returns_io_error
FNDA:1,_RNvNtNtCsjN0pppA1BUl_14aegis_compiler8bytecode5testss_35to_json_compact_produces_valid_json
FNDA:1,_RNvNtNtCsjN0pppA1BUl_14aegis_compiler8bytecode5testss_42corrupted_json_payload_returns_serde_error
FNDA:1,_RNvNtNtCsjN0pppA1BUl_14aegis_compiler8bytecode5testss_42write_bytecode_returns_total_bytes_written
FNDA:1,_RNvNtNtCsjN0pppA1BUl_14aegis_compiler8bytecode5testss_44to_json_produces_valid_json_with_policy_name
FNDA:1,_RNvNtNtCsjN0pppA1BUl_14aegis_compiler8bytecode5testss_45unsupported_version_returns_error_with_values
FNDA:1,_RNvNtNtCsjN0pppA1BUl_14aegis_compiler8bytecode5testss_46bytecode_payload_length_matches_actual_payload
FNDA:1,_RNvNtNtCsjN0pppA1BUl_14aegis_compiler8bytecode5testss_46invalid_magic_byte_returns_invalid_magic_error
FNDA:17,_RNvNtCsjN0pppA1BUl_14aegis_compiler8bytecode11to_bytecode
FNDA:15,_RNvNtCsjN0pppA1BUl_14aegis_compiler8bytecode13from_bytecode
FNDA:2,_RNvNtCsjN0pppA1BUl_14aegis_compiler8bytecode15to_json_compact
FNDA:2,_RNvNtCsjN0pppA1BUl_14aegis_compiler8bytecode7to_json
FNDA:3,_RNvXNtCsjN0pppA1BUl_14aegis_compiler8bytecodeNtB2_13BytecodeErrorINtNtCsbNKrcpplAYV_4core7convert4FromNtNtNtCskbfKHyEss4N_3std2io5error5ErrorE4from
FNDA:15,_RINvNtCsjN0pppA1BUl_14aegis_compiler8bytecode13read_bytecodeINtNtNtCskbfKHyEss4N_3std2io6cursor6CursorRShEEB4_
FNDA:18,_RINvNtCsjN0pppA1BUl_14aegis_compiler8bytecode14write_bytecodeINtNtCs3BtblC6bdc8_5alloc3vec3VechEEB4_
FNDA:1,_RNCINvNtCsjN0pppA1BUl_14aegis_compiler8bytecode13read_bytecodeINtNtNtCskbfKHyEss4N_3std2io6cursor6CursorRShEE0B6_
FNDA:0,_RNCINvNtCsjN0pppA1BUl_14aegis_compiler8bytecode14write_bytecodeINtNtCs3BtblC6bdc8_5alloc3vec3VechEE0B6_
FNDA:0,_RNCNvNtCsjN0pppA1BUl_14aegis_compiler8bytecode15to_json_compact0B5_
FNDA:0,_RNCNvNtCsjN0pppA1BUl_14aegis_compiler8bytecode7to_json0B5_
FNF:37
FNH:34
DA:51,4
DA:52,4
DA:53,4
DA:57,2
DA:58,2
DA:59,1
DA:60,0
DA:61,1
DA:62,0
DA:63,0
DA:64,0
DA:68,0
DA:69,0
DA:70,0
DA:75,2
DA:83,30
DA:84,30
DA:85,30
DA:86,30
DA:88,30
DA:90,30
DA:93,30
DA:94,30
DA:95,30
DA:96,30
DA:99,30
DA:102,30
DA:103,30
DA:106,17
DA:107,17
DA:108,17
DA:109,17
DA:110,17
DA:117,24
DA:119,24
DA:120,24
DA:121,22
DA:122,6
DA:123,16
DA:126,16
DA:127,16
DA:128,16
DA:129,16
DA:130,1
DA:131,1
DA:132,1
DA:133,1
DA:134,15
DA:137,15
DA:138,15
DA:141,15
DA:142,15
DA:143,15
DA:146,15
DA:147,15
DA:150,13
DA:151,14
DA:153,13
DA:154,24
DA:157,15
DA:158,15
DA:159,15
DA:160,15
DA:167,3
DA:168,3
DA:169,3
DA:172,2
DA:173,2
DA:174,2
DA:181,12
DA:182,12
DA:183,12
DA:184,12
DA:187,9
DA:188,9
DA:189,9
DA:190,9
DA:193,5
DA:194,5
DA:196,4
DA:197,4
DA:198,4
DA:200,4
DA:201,4
DA:202,4
DA:204,4
DA:205,4
DA:206,4
DA:208,4
DA:209,4
DA:210,4
DA:212,4
DA:214,4
DA:215,4
DA:216,4
DA:217,4
DA:218,4
DA:219,4
DA:220,4
DA:221,5
DA:234,4
DA:235,4
DA:236,4
DA:238,4
DA:239,0
DA:240,4
DA:241,4
DA:242,4
DA:243,4
DA:244,4
DA:245,4
DA:255,21
DA:256,21
DA:257,21
DA:258,21
DA:259,21
DA:260,21
DA:261,21
DA:262,21
DA:263,21
DA:264,21
DA:265,21
DA:266,21
DA:267,21
DA:268,21
DA:269,21
DA:274,1
DA:275,1
DA:276,1
DA:277,1
DA:280,1
DA:281,1
DA:282,1
DA:283,1
DA:284,1
DA:287,1
DA:288,1
DA:289,1
DA:290,1
DA:291,1
DA:294,1
DA:295,1
DA:296,1
DA:297,1
DA:298,1
DA:299,1
DA:302,1
DA:303,1
DA:304,1
DA:305,1
DA:306,1
DA:307,1
DA:308,1
DA:313,1
DA:314,1
DA:315,1
DA:316,1
DA:317,1
DA:318,1
DA:319,1
DA:320,1
DA:321,1
DA:324,1
DA:325,1
DA:326,1
DA:327,1
DA:328,1
DA:329,1
DA:330,1
DA:331,1
DA:334,1
DA:335,1
DA:336,1
DA:337,1
DA:338,1
DA:339,1
DA:342,1
DA:343,1
DA:344,1
DA:345,1
DA:346,1
DA:347,1
DA:348,1
DA:349,1
DA:351,1
DA:353,1
DA:354,1
DA:355,1
DA:356,1
DA:357,1
DA:358,1
DA:359,1
DA:362,1
DA:363,1
DA:364,1
DA:365,1
DA:366,1
DA:367,1
DA:368,1
DA:369,1
DA:371,1
DA:372,1
DA:373,1
DA:374,1
DA:375,1
DA:378,1
DA:379,1
DA:380,1
DA:381,1
DA:382,1
DA:383,1
DA:388,1
DA:389,1
DA:390,1
DA:391,1
DA:392,1
DA:395,1
DA:398,1
DA:399,4
DA:400,4
DA:401,4
DA:402,4
DA:403,4
DA:407,1
DA:410,1
DA:411,1
DA:412,1
DA:413,1
DA:414,1
DA:415,1
DA:416,1
DA:417,1
DA:419,0
DA:421,1
DA:424,1
DA:425,1
DA:426,1
DA:429,1
DA:431,1
DA:432,1
DA:435,1
DA:438,1
DA:439,1
DA:441,1
DA:442,1
DA:443,1
DA:444,1
DA:447,1
DA:448,1
DA:450,1
DA:451,174
DA:452,174
DA:453,174
DA:454,1
DA:455,1
DA:458,1
DA:463,1
DA:464,1
DA:465,1
DA:466,1
DA:467,1
DA:468,1
DA:471,1
DA:472,1
DA:473,1
DA:474,1
DA:475,1
DA:476,1
DA:479,1
DA:480,1
DA:481,1
DA:482,1
DA:484,1
DA:485,1
DA:486,1
BRF:0
BRH:0
LF:279
LH:267
end_of_record
SF:/home/scott/Projects/AgentProof/aegis-compiler/src/checker/mod.rs
FN:446,_RNCNvMs0_NtCs6BFVBPdMni0_14aegis_compiler7checkerNtB7_11TypeChecker10check_expr0B9_
FN:696,_RNCNvMs0_NtCs6BFVBPdMni0_14aegis_compiler7checkerNtB7_11TypeChecker10check_exprs0_0B9_
FN:741,_RNCNvMs0_NtCs6BFVBPdMni0_14aegis_compiler7checkerNtB7_11TypeChecker10check_exprs1_0B9_
FN:742,_RNCNvMs0_NtCs6BFVBPdMni0_14aegis_compiler7checkerNtB7_11TypeChecker10check_exprs2_0B9_
FN:673,_RNCNvMs0_NtCs6BFVBPdMni0_14aegis_compiler7checkerNtB7_11TypeChecker10check_exprs_0B9_
FN:218,_RNCNvMs0_NtCs6BFVBPdMni0_14aegis_compiler7checkerNtB7_11TypeChecker10check_rule0B9_
FN:171,_RNCNvMs0_NtCs6BFVBPdMni0_14aegis_compiler7checkerNtB7_11TypeChecker12check_policy0B9_
FN:1071,_RNCNvMs0_NtCs6BFVBPdMni0_14aegis_compiler7checkerNtB7_11TypeChecker12resolve_type0B9_
FN:93,_RNCNvMs0_NtCs6BFVBPdMni0_14aegis_compiler7checkerNtB7_11TypeChecker20register_declaration0B9_
FN:106,_RNCNvMs0_NtCs6BFVBPdMni0_14aegis_compiler7checkerNtB7_11TypeChecker20register_declarations_0B9_
FN:21,_RNvMNtCs6BFVBPdMni0_14aegis_compiler7checkerNtB2_12CheckContext9top_level
FN:397,_RNvMs0_NtCs6BFVBPdMni0_14aegis_compiler7checkerNtB5_11TypeChecker10check_expr
FN:206,_RNvMs0_NtCs6BFVBPdMni0_14aegis_compiler7checkerNtB5_11TypeChecker10check_rule
FN:322,_RNvMs0_NtCs6BFVBPdMni0_14aegis_compiler7checkerNtB5_11TypeChecker11check_proof
FN:60,_RNvMs0_NtCs6BFVBPdMni0_14aegis_compiler7checkerNtB5_11TypeChecker11diagnostics
FN:147,_RNvMs0_NtCs6BFVBPdMni0_14aegis_compiler7checkerNtB5_11TypeChecker12check_policy
FN:1040,_RNvMs0_NtCs6BFVBPdMni0_14aegis_compiler7checkerNtB5_11TypeChecker12resolve_type
FN:351,_RNvMs0_NtCs6BFVBPdMni0_14aegis_compiler7checkerNtB5_11TypeChecker13check_binding
FN:992,_RNvMs0_NtCs6BFVBPdMni0_14aegis_compiler7checkerNtB5_11TypeChecker13check_literal
FN:72,_RNvMs0_NtCs6BFVBPdMni0_14aegis_compiler7checkerNtB5_11TypeChecker13check_program
FN:369,_RNvMs0_NtCs6BFVBPdMni0_14aegis_compiler7checkerNtB5_11TypeChecker14check_function
FN:790,_RNvMs0_NtCs6BFVBPdMni0_14aegis_compiler7checkerNtB5_11TypeChecker14check_temporal
FN:914,_RNvMs0_NtCs6BFVBPdMni0_14aegis_compiler7checkerNtB5_11TypeChecker15check_binary_op
FN:333,_RNvMs0_NtCs6BFVBPdMni0_14aegis_compiler7checkerNtB5_11TypeChecker15check_invariant
FN:286,_RNvMs0_NtCs6BFVBPdMni0_14aegis_compiler7checkerNtB5_11TypeChecker16check_constraint
FN:64,_RNvMs0_NtCs6BFVBPdMni0_14aegis_compiler7checkerNtB5_11TypeChecker16into_diagnostics
FN:268,_RNvMs0_NtCs6BFVBPdMni0_14aegis_compiler7checkerNtB5_11TypeChecker17check_action_args
FN:127,_RNvMs0_NtCs6BFVBPdMni0_14aegis_compiler7checkerNtB5_11TypeChecker17check_declaration
FN:236,_RNvMs0_NtCs6BFVBPdMni0_14aegis_compiler7checkerNtB5_11TypeChecker17check_rule_clause
FN:1003,_RNvMs0_NtCs6BFVBPdMni0_14aegis_compiler7checkerNtB5_11TypeChecker18check_match_result
FN:188,_RNvMs0_NtCs6BFVBPdMni0_14aegis_compiler7checkerNtB5_11TypeChecker19check_policy_member
FN:87,_RNvMs0_NtCs6BFVBPdMni0_14aegis_compiler7checkerNtB5_11TypeChecker20register_declaration
FN:1019,_RNvMs0_NtCs6BFVBPdMni0_14aegis_compiler7checkerNtB5_11TypeChecker21check_block_statement
FN:53,_RNvMs0_NtCs6BFVBPdMni0_14aegis_compiler7checkerNtB5_11TypeChecker3new
FN:47,_RNvXs_NtCs6BFVBPdMni0_14aegis_compiler7checkerNtB4_11TypeCheckerNtNtCsbNKrcpplAYV_4core7default7Default7default
FN:446,_RNCNvMs0_NtCsjN0pppA1BUl_14aegis_compiler7checkerNtB7_11TypeChecker10check_expr0B9_
FN:696,_RNCNvMs0_NtCsjN0pppA1BUl_14aegis_compiler7checkerNtB7_11TypeChecker10check_exprs0_0B9_
FN:741,_RNCNvMs0_NtCsjN0pppA1BUl_14aegis_compiler7checkerNtB7_11TypeChecker10check_exprs1_0B9_
FN:742,_RNCNvMs0_NtCsjN0pppA1BUl_14aegis_compiler7checkerNtB7_11TypeChecker10check_exprs2_0B9_
FN:673,_RNCNvMs0_NtCsjN0pppA1BUl_14aegis_compiler7checkerNtB7_11TypeChecker10check_exprs_0B9_
FN:218,_RNCNvMs0_NtCsjN0pppA1BUl_14aegis_compiler7checkerNtB7_11TypeChecker10check_rule0B9_
FN:171,_RNCNvMs0_NtCsjN0pppA1BUl_14aegis_compiler7checkerNtB7_11TypeChecker12check_policy0B9_
FN:1071,_RNCNvMs0_NtCsjN0pppA1BUl_14aegis_compiler7checkerNtB7_11TypeChecker12resolve_type0B9_
FN:93,_RNCNvMs0_NtCsjN0pppA1BUl_14aegis_compiler7checkerNtB7_11TypeChecker20register_declaration0B9_
FN:106,_RNCNvMs0_NtCsjN0pppA1BUl_14aegis_compiler7checkerNtB7_11TypeChecker20register_declarations_0B9_
FN:21,_RNvMNtCsjN0pppA1BUl_14aegis_compiler7checkerNtB2_12CheckContext9top_level
FN:397,_RNvMs0_NtCsjN0pppA1BUl_14aegis_compiler7checkerNtB5_11TypeChecker10check_expr
FN:206,_RNvMs0_NtCsjN0pppA1BUl_14aegis_compiler7checkerNtB5_11TypeChecker10check_rule
FN:322,_RNvMs0_NtCsjN0pppA1BUl_14aegis_compiler7checkerNtB5_11TypeChecker11check_proof
FN:60,_RNvMs0_NtCsjN0pppA1BUl_14aegis_compiler7checkerNtB5_11TypeChecker11diagnostics
FN:147,_RNvMs0_NtCsjN0pppA1BUl_14aegis_compiler7checkerNtB5_11TypeChecker12check_policy
FN:1040,_RNvMs0_NtCsjN0pppA1BUl_14aegis_compiler7checkerNtB5_11TypeChecker12resolve_type
FN:351,_RNvMs0_NtCsjN0pppA1BUl_14aegis_compiler7checkerNtB5_11TypeChecker13check_binding
FN:992,_RNvMs0_NtCsjN0pppA1BUl_14aegis_compiler7checkerNtB5_11TypeChecker13check_literal
FN:72,_RNvMs0_NtCsjN0pppA1BUl_14aegis_compiler7checkerNtB5_11TypeChecker13check_program
FN:369,_RNvMs0_NtCsjN0pppA1BUl_14aegis_compiler7checkerNtB5_11TypeChecker14check_function
FN:790,_RNvMs0_NtCsjN0pppA1BUl_14aegis_compiler7checkerNtB5_11TypeChecker14check_temporal
FN:914,_RNvMs0_NtCsjN0pppA1BUl_14aegis_compiler7checkerNtB5_11TypeChecker15check_binary_op
FN:333,_RNvMs0_NtCsjN0pppA1BUl_14aegis_compiler7checkerNtB5_11TypeChecker15check_invariant
FN:286,_RNvMs0_NtCsjN0pppA1BUl_14aegis_compiler7checkerNtB5_11TypeChecker16check_constraint
FN:64,_RNvMs0_NtCsjN0pppA1BUl_14aegis_compiler7checkerNtB5_11TypeChecker16into_diagnostics
FN:268,_RNvMs0_NtCsjN0pppA1BUl_14aegis_compiler7checkerNtB5_11TypeChecker17check_action_args
FN:127,_RNvMs0_NtCsjN0pppA1BUl_14aegis_compiler7checkerNtB5_11TypeChecker17check_declaration
FN:236,_RNvMs0_NtCsjN0pppA1BUl_14aegis_compiler7checkerNtB5_11TypeChecker17check_rule_clause
FN:1003,_RNvMs0_NtCsjN0pppA1BUl_14aegis_compiler7checkerNtB5_11TypeChecker18check_match_result
FN:188,_RNvMs0_NtCsjN0pppA1BUl_14aegis_compiler7checkerNtB5_11TypeChecker19check_policy_member
FN:87,_RNvMs0_NtCsjN0pppA1BUl_14aegis_compiler7checkerNtB5_11TypeChecker20register_declaration
FN:1019,_RNvMs0_NtCsjN0pppA1BUl_14aegis_compiler7checkerNtB5_11TypeChecker21check_block_statement
FN:53,_RNvMs0_NtCsjN0pppA1BUl_14aegis_compiler7checkerNtB5_11TypeChecker3new
FN:47,_RNvXs_NtCsjN0pppA1BUl_14aegis_compiler7checkerNtB4_11TypeCheckerNtNtCsbNKrcpplAYV_4core7default7Default7default
FNDA:0,_RNCNvMs0_NtCs6BFVBPdMni0_14aegis_compiler7checkerNtB7_11TypeChecker10check_expr0B9_
FNDA:0,_RNCNvMs0_NtCs6BFVBPdMni0_14aegis_compiler7checkerNtB7_11TypeChecker10check_exprs0_0B9_
FNDA:0,_RNCNvMs0_NtCs6BFVBPdMni0_14aegis_compiler7checkerNtB7_11TypeChecker10check_exprs1_0B9_
FNDA:0,_RNCNvMs0_NtCs6BFVBPdMni0_14aegis_compiler7checkerNtB7_11TypeChecker10check_exprs2_0B9_
FNDA:1,_RNCNvMs0_NtCs6BFVBPdMni0_14aegis_compiler7checkerNtB7_11TypeChecker10check_exprs_0B9_
FNDA:90,_RNCNvMs0_NtCs6BFVBPdMni0_14aegis_compiler7checkerNtB7_11TypeChecker10check_rule0B9_
FNDA:103,_RNCNvMs0_NtCs6BFVBPdMni0_14aegis_compiler7checkerNtB7_11TypeChecker12check_policy0B9_
FNDA:0,_RNCNvMs0_NtCs6BFVBPdMni0_14aegis_compiler7checkerNtB7_11TypeChecker12resolve_type0B9_
FNDA:2,_RNCNvMs0_NtCs6BFVBPdMni0_14aegis_compiler7checkerNtB7_11TypeChecker20register_declaration0B9_
FNDA:2,_RNCNvMs0_NtCs6BFVBPdMni0_14aegis_compiler7checkerNtB7_11TypeChecker20register_declarations_0B9_
FNDA:139,_RNvMNtCs6BFVBPdMni0_14aegis_compiler7checkerNtB2_12CheckContext9top_level
FNDA:179,_RNvMs0_NtCs6BFVBPdMni0_14aegis_compiler7checkerNtB5_11TypeChecker10check_expr
FNDA:48,_RNvMs0_NtCs6BFVBPdMni0_14aegis_compiler7checkerNtB5_11TypeChecker10check_rule
FNDA:16,_RNvMs0_NtCs6BFVBPdMni0_14aegis_compiler7checkerNtB5_11TypeChecker11check_proof
FNDA:0,_RNvMs0_NtCs6BFVBPdMni0_14aegis_compiler7checkerNtB5_11TypeChecker11diagnostics
FNDA:65,_RNvMs0_NtCs6BFVBPdMni0_14aegis_compiler7checkerNtB5_11TypeChecker12check_policy
FNDA:15,_RNvMs0_NtCs6BFVBPdMni0_14aegis_compiler7checkerNtB5_11TypeChecker12resolve_type
FNDA:1,_RNvMs0_NtCs6BFVBPdMni0_14aegis_compiler7checkerNtB5_11TypeChecker13check_binding
FNDA:127,_RNvMs0_NtCs6BFVBPdMni0_14aegis_compiler7checkerNtB5_11TypeChecker13check_literal
FNDA:74,_RNvMs0_NtCs6BFVBPdMni0_14aegis_compiler7checkerNtB5_11TypeChecker13check_program
FNDA:4,_RNvMs0_NtCs6BFVBPdMni0_14aegis_compiler7checkerNtB5_11TypeChecker14check_function
FNDA:29,_RNvMs0_NtCs6BFVBPdMni0_14aegis_compiler7checkerNtB5_11TypeChecker14check_temporal
FNDA:9,_RNvMs0_NtCs6BFVBPdMni0_14aegis_compiler7checkerNtB5_11TypeChecker15check_binary_op
FNDA:24,_RNvMs0_NtCs6BFVBPdMni0_14aegis_compiler7checkerNtB5_11TypeChecker15check_invariant
FNDA:12,_RNvMs0_NtCs6BFVBPdMni0_14aegis_compiler7checkerNtB5_11TypeChecker16check_constraint
FNDA:74,_RNvMs0_NtCs6BFVBPdMni0_14aegis_compiler7checkerNtB5_11TypeChecker16into_diagnostics
FNDA:0,_RNvMs0_NtCs6BFVBPdMni0_14aegis_compiler7checkerNtB5_11TypeChecker17check_action_args
FNDA:71,_RNvMs0_NtCs6BFVBPdMni0_14aegis_compiler7checkerNtB5_11TypeChecker17check_declaration
FNDA:90,_RNvMs0_NtCs6BFVBPdMni0_14aegis_compiler7checkerNtB5_11TypeChecker17check_rule_clause
FNDA:0,_RNvMs0_NtCs6BFVBPdMni0_14aegis_compiler7checkerNtB5_11TypeChecker18check_match_result
FNDA:103,_RNvMs0_NtCs6BFVBPdMni0_14aegis_compiler7checkerNtB5_11TypeChecker19check_policy_member
FNDA:71,_RNvMs0_NtCs6BFVBPdMni0_14aegis_compiler7checkerNtB5_11TypeChecker20register_declaration
FNDA:0,_RNvMs0_NtCs6BFVBPdMni0_14aegis_compiler7checkerNtB5_11TypeChecker21check_block_statement
FNDA:74,_RNvMs0_NtCs6BFVBPdMni0_14aegis_compiler7checkerNtB5_11TypeChecker3new
FNDA:0,_RNvXs_NtCs6BFVBPdMni0_14aegis_compiler7checkerNtB4_11TypeCheckerNtNtCsbNKrcpplAYV_4core7default7Default7default
FNDA:0,_RNCNvMs0_NtCsjN0pppA1BUl_14aegis_compiler7checkerNtB7_11TypeChecker10check_expr0B9_
FNDA:0,_RNCNvMs0_NtCsjN0pppA1BUl_14aegis_compiler7checkerNtB7_11TypeChecker10check_exprs0_0B9_
FNDA:0,_RNCNvMs0_NtCsjN0pppA1BUl_14aegis_compiler7checkerNtB7_11TypeChecker10check_exprs1_0B9_
FNDA:0,_RNCNvMs0_NtCsjN0pppA1BUl_14aegis_compiler7checkerNtB7_11TypeChecker10check_exprs2_0B9_
FNDA:0,_RNCNvMs0_NtCsjN0pppA1BUl_14aegis_compiler7checkerNtB7_11TypeChecker10check_exprs_0B9_
FNDA:0,_RNCNvMs0_NtCsjN0pppA1BUl_14aegis_compiler7checkerNtB7_11TypeChecker10check_rule0B9_
FNDA:0,_RNCNvMs0_NtCsjN0pppA1BUl_14aegis_compiler7checkerNtB7_11TypeChecker12check_policy0B9_
FNDA:0,_RNCNvMs0_NtCsjN0pppA1BUl_14aegis_compiler7checkerNtB7_11TypeChecker12resolve_type0B9_
FNDA:0,_RNCNvMs0_NtCsjN0pppA1BUl_14aegis_compiler7checkerNtB7_11TypeChecker20register_declaration0B9_
FNDA:0,_RNCNvMs0_NtCsjN0pppA1BUl_14aegis_compiler7checkerNtB7_11TypeChecker20register_declarations_0B9_
FNDA:0,_RNvMNtCsjN0pppA1BUl_14aegis_compiler7checkerNtB2_12CheckContext9top_level
FNDA:0,_RNvMs0_NtCsjN0pppA1BUl_14aegis_compiler7checkerNtB5_11TypeChecker10check_expr
FNDA:0,_RNvMs0_NtCsjN0pppA1BUl_14aegis_compiler7checkerNtB5_11TypeChecker10check_rule
FNDA:0,_RNvMs0_NtCsjN0pppA1BUl_14aegis_compiler7checkerNtB5_11TypeChecker11check_proof
FNDA:0,_RNvMs0_NtCsjN0pppA1BUl_14aegis_compiler7checkerNtB5_11TypeChecker11diagnostics
FNDA:0,_RNvMs0_NtCsjN0pppA1BUl_14aegis_compiler7checkerNtB5_11TypeChecker12check_policy
FNDA:0,_RNvMs0_NtCsjN0pppA1BUl_14aegis_compiler7checkerNtB5_11TypeChecker12resolve_type
FNDA:0,_RNvMs0_NtCsjN0pppA1BUl_14aegis_compiler7checkerNtB5_11TypeChecker13check_binding
FNDA:0,_RNvMs0_NtCsjN0pppA1BUl_14aegis_compiler7checkerNtB5_11TypeChecker13check_literal
FNDA:0,_RNvMs0_NtCsjN0pppA1BUl_14aegis_compiler7checkerNtB5_11TypeChecker13check_program
FNDA:0,_RNvMs0_NtCsjN0pppA1BUl_14aegis_compiler7checkerNtB5_11TypeChecker14check_function
FNDA:0,_RNvMs0_NtCsjN0pppA1BUl_14aegis_compiler7checkerNtB5_11TypeChecker14check_temporal
FNDA:0,_RNvMs0_NtCsjN0pppA1BUl_14aegis_compiler7checkerNtB5_11TypeChecker15check_binary_op
FNDA:0,_RNvMs0_NtCsjN0pppA1BUl_14aegis_compiler7checkerNtB5_11TypeChecker15check_invariant
FNDA:0,_RNvMs0_NtCsjN0pppA1BUl_14aegis_compiler7checkerNtB5_11TypeChecker16check_constraint
FNDA:0,_RNvMs0_NtCsjN0pppA1BUl_14aegis_compiler7checkerNtB5_11TypeChecker16into_diagnostics
FNDA:0,_RNvMs0_NtCsjN0pppA1BUl_14aegis_compiler7checkerNtB5_11TypeChecker17check_action_args
FNDA:0,_RNvMs0_NtCsjN0pppA1BUl_14aegis_compiler7checkerNtB5_11TypeChecker17check_declaration
FNDA:0,_RNvMs0_NtCsjN0pppA1BUl_14aegis_compiler7checkerNtB5_11TypeChecker17check_rule_clause
FNDA:0,_RNvMs0_NtCsjN0pppA1BUl_14aegis_compiler7checkerNtB5_11TypeChecker18check_match_result
FNDA:0,_RNvMs0_NtCsjN0pppA1BUl_14aegis_compiler7checkerNtB5_11TypeChecker19check_policy_member
FNDA:0,_RNvMs0_NtCsjN0pppA1BUl_14aegis_compiler7checkerNtB5_11TypeChecker20register_declaration
FNDA:0,_RNvMs0_NtCsjN0pppA1BUl_14aegis_compiler7checkerNtB5_11TypeChecker21check_block_statement
FNDA:0,_RNvMs0_NtCsjN0pppA1BUl_14aegis_compiler7checkerNtB5_11TypeChecker3new
FNDA:0,_RNvXs_NtCsjN0pppA1BUl_14aegis_compiler7checkerNtB4_11TypeCheckerNtNtCsbNKrcpplAYV_4core7default7Default7default
FNF:35
FNH:25
DA:21,139
DA:22,139
DA:23,139
DA:24,139
DA:25,139
DA:26,139
DA:27,139
DA:28,139
DA:47,0
DA:48,0
DA:49,0
DA:53,74
DA:54,74
DA:55,74
DA:56,74
DA:57,74
DA:58,74
DA:60,0
DA:61,0
DA:62,0
DA:64,74
DA:65,74
DA:66,74
DA:72,74
DA:73,74
DA:77,74
DA:78,71
DA:79,71
DA:82,74
DA:83,71
DA:84,71
DA:85,74
DA:87,71
DA:88,71
DA:89,1
DA:90,1
DA:91,1
DA:92,1
DA:93,2
DA:94,1
DA:95,1
DA:96,1
DA:97,1
DA:98,1
DA:99,1
DA:100,1
DA:102,4
DA:103,4
DA:104,4
DA:105,4
DA:106,4
DA:107,4
DA:108,4
DA:109,4
DA:110,4
DA:112,65
DA:113,65
DA:114,65
DA:115,65
DA:116,65
DA:117,65
DA:118,65
DA:119,65
DA:120,65
DA:121,65
DA:122,65
DA:123,1
DA:125,71
DA:127,71
DA:128,71
DA:129,0
DA:130,0
DA:131,0
DA:132,0
DA:133,65
DA:134,0
DA:135,1
DA:136,1
DA:137,1
DA:138,1
DA:139,4
DA:141,71
DA:147,65
DA:149,65
DA:150,8
DA:151,8
DA:152,5
DA:153,5
DA:154,5
DA:155,5
DA:156,5
DA:157,5
DA:158,57
DA:160,65
DA:161,65
DA:162,65
DA:163,65
DA:165,65
DA:168,65
DA:169,65
DA:170,65
DA:171,103
DA:172,65
DA:173,65
DA:174,3
DA:175,3
DA:176,3
DA:177,3
DA:178,3
DA:179,62
DA:181,103
DA:182,103
DA:183,103
DA:185,65
DA:186,65
DA:188,103
DA:189,103
DA:190,19
DA:191,8
DA:192,8
DA:193,8
DA:194,48
DA:195,16
DA:196,12
DA:197,0
DA:198,0
DA:200,103
DA:206,48
DA:207,48
DA:208,48
DA:209,48
DA:210,48
DA:212,48
DA:215,48
DA:216,48
DA:217,48
DA:218,90
DA:219,48
DA:220,1
DA:221,1
DA:222,1
DA:223,1
DA:227,47
DA:229,90
DA:230,90
DA:231,90
DA:233,48
DA:234,48
DA:236,90
DA:237,90
DA:238,43
DA:239,43
DA:240,43
DA:241,3
DA:242,3
DA:243,3
DA:244,3
DA:245,3
DA:246,40
DA:248,47
DA:249,47
DA:250,18
DA:251,18
DA:252,1
DA:253,1
DA:254,1
DA:255,1
DA:256,1
DA:257,17
DA:258,29
DA:260,0
DA:261,0
DA:262,0
DA:263,0
DA:264,0
DA:266,90
DA:268,0
DA:269,0
DA:270,0
DA:271,0
DA:272,0
DA:273,0
DA:274,0
DA:275,0
DA:276,0
DA:277,0
DA:280,0
DA:286,12
DA:287,12
DA:288,12
DA:289,1
DA:290,1
DA:291,1
DA:292,1
DA:294,1
DA:295,1
DA:296,0
DA:300,11
DA:302,12
DA:303,12
DA:304,1
DA:305,1
DA:306,1
DA:307,1
DA:309,1
DA:310,1
DA:311,0
DA:315,11
DA:316,12
DA:322,16
DA:323,16
DA:324,16
DA:325,16
DA:326,16
DA:328,24
DA:329,24
DA:330,24
DA:331,16
DA:333,24
DA:334,24
DA:335,24
DA:337,24
DA:338,0
DA:339,0
DA:340,0
DA:341,0
DA:342,0
DA:343,24
DA:345,24
DA:351,1
DA:352,1
DA:354,1
DA:355,1
DA:356,1
DA:357,0
DA:358,0
DA:359,0
DA:360,0
DA:361,0
DA:362,1
DA:363,1
DA:364,0
DA:365,0
DA:366,0
DA:367,1
DA:369,4
DA:370,4
DA:373,4
DA:374,2
DA:375,2
DA:376,2
DA:378,4
DA:379,4
DA:381,4
DA:382,1
DA:383,1
DA:384,1
DA:385,1
DA:386,1
DA:387,1
DA:388,3
DA:390,4
DA:391,4
DA:397,179
DA:398,179
DA:399,127
DA:401,1
DA:402,1
DA:404,1
DA:405,0
DA:406,1
DA:408,1
DA:409,1
DA:410,1
DA:411,0
DA:412,1
DA:413,1
DA:415,0
DA:416,1
DA:417,0
DA:418,1
DA:419,1
DA:422,0
DA:423,0
DA:424,0
DA:425,0
DA:426,0
DA:429,0
DA:430,0
DA:434,0
DA:435,0
DA:436,0
DA:437,0
DA:438,0
DA:441,0
DA:442,0
DA:443,0
DA:444,0
DA:445,0
DA:446,0
DA:448,0
DA:449,0
DA:451,0
DA:452,0
DA:453,0
DA:454,0
DA:455,0
DA:457,0
DA:458,0
DA:459,0
DA:460,0
DA:462,0
DA:465,0
DA:467,0
DA:468,0
DA:469,0
DA:470,0
DA:472,0
DA:477,1
DA:478,1
DA:479,1
DA:480,1
DA:481,1
DA:482,1
DA:483,1
DA:484,1
DA:485,1
DA:486,1
DA:487,1
DA:488,1
DA:489,1
DA:491,0
DA:492,0
DA:494,0
DA:495,0
DA:496,0
DA:497,0
DA:499,0
DA:504,2
DA:506,2
DA:507,2
DA:508,2
DA:509,2
DA:510,2
DA:511,2
DA:512,2
DA:513,2
DA:514,2
DA:515,2
DA:516,2
DA:517,2
DA:518,2
DA:519,2
DA:520,2
DA:522,2
DA:523,0
DA:524,0
DA:525,0
DA:526,0
DA:527,0
DA:528,0
DA:529,0
DA:530,0
DA:532,2
DA:533,0
DA:534,0
DA:535,0
DA:537,0
DA:538,0
DA:539,0
DA:540,0
DA:544,0
DA:546,0
DA:548,0
DA:549,0
DA:550,0
DA:551,0
DA:554,0
DA:555,0
DA:556,0
DA:557,0
DA:558,0
DA:561,9
DA:562,9
DA:563,9
DA:564,9
DA:567,2
DA:568,2
DA:569,2
DA:571,1
DA:572,1
DA:573,1
DA:574,1
DA:575,1
DA:576,1
DA:577,1
DA:578,1
DA:581,1
DA:582,1
DA:583,1
DA:584,1
DA:585,1
DA:586,1
DA:587,1
DA:588,1
DA:593,29
DA:596,4
DA:597,4
DA:598,4
DA:600,4
DA:601,4
DA:603,4
DA:606,1
DA:607,1
DA:608,1
DA:609,1
DA:610,1
DA:611,1
DA:612,1
DA:613,1
DA:614,1
DA:617,1
DA:618,1
DA:619,1
DA:620,1
DA:621,1
DA:622,1
DA:623,1
DA:626,2
DA:627,2
DA:628,2
DA:629,2
DA:630,2
DA:632,2
DA:633,1
DA:634,1
DA:635,0
DA:639,0
DA:640,2
DA:641,0
DA:642,0
DA:643,0
DA:644,0
DA:645,0
DA:646,2
DA:649,4
DA:654,2
DA:655,2
DA:657,2
DA:658,2
DA:660,1
DA:661,1
DA:662,1
DA:663,1
DA:664,1
DA:665,1
DA:666,1
DA:667,1
DA:669,2
DA:670,2
DA:671,2
DA:672,2
DA:673,2
DA:674,2
DA:675,2
DA:676,2
DA:677,2
DA:678,2
DA:679,1
DA:680,1
DA:681,1
DA:682,1
DA:683,1
DA:684,1
DA:685,2
DA:686,2
DA:689,0
DA:690,0
DA:691,0
DA:692,0
DA:693,0
DA:694,0
DA:695,0
DA:696,0
DA:697,0
DA:698,0
DA:699,0
DA:700,0
DA:701,0
DA:702,0
DA:703,0
DA:704,0
DA:705,0
DA:706,0
DA:707,0
DA:708,0
DA:709,0
DA:710,0
DA:713,0
DA:714,0
DA:715,0
DA:716,0
DA:718,0
DA:719,0
DA:720,0
DA:722,0
DA:723,0
DA:724,0
DA:725,0
DA:726,0
DA:727,0
DA:728,0
DA:730,0
DA:733,0
DA:736,0
DA:737,0
DA:738,0
DA:739,0
DA:740,0
DA:741,0
DA:742,0
DA:743,0
DA:745,0
DA:746,0
DA:747,0
DA:750,2
DA:751,2
DA:752,0
DA:753,2
DA:754,2
DA:755,2
DA:756,1
DA:757,1
DA:758,0
DA:759,0
DA:760,1
DA:762,2
DA:765,0
DA:767,0
DA:768,0
DA:769,0
DA:770,0
DA:771,0
DA:774,0
DA:775,0
DA:776,0
DA:777,0
DA:778,0
DA:779,0
DA:780,0
DA:781,0
DA:784,179
DA:790,29
DA:791,29
DA:792,4
DA:793,2
DA:794,1
DA:795,1
DA:796,0
DA:797,0
DA:798,0
DA:799,0
DA:801,4
DA:802,4
DA:803,4
DA:804,25
DA:806,25
DA:807,1
DA:808,1
DA:809,1
DA:810,1
DA:811,1
DA:812,1
DA:813,1
DA:814,24
DA:816,25
DA:817,25
DA:818,25
DA:819,25
DA:821,25
DA:822,15
DA:823,1
DA:824,16
DA:825,16
DA:826,3
DA:827,2
DA:829,1
DA:831,3
DA:832,3
DA:833,13
DA:834,16
DA:835,3
DA:836,3
DA:837,2
DA:838,2
DA:839,2
DA:840,13
DA:841,16
DA:844,9
DA:845,9
DA:846,9
DA:847,1
DA:848,1
DA:849,8
DA:850,9
DA:853,0
DA:854,0
DA:855,0
DA:856,0
DA:857,0
DA:858,0
DA:859,0
DA:860,0
DA:861,0
DA:862,0
DA:863,0
DA:864,0
DA:865,0
DA:866,0
DA:867,0
DA:868,0
DA:871,0
DA:872,0
DA:873,0
DA:874,0
DA:875,0
DA:876,0
DA:877,0
DA:880,0
DA:881,0
DA:882,0
DA:883,0
DA:884,0
DA:885,0
DA:886,0
DA:887,0
DA:888,0
DA:889,0
DA:890,0
DA:891,0
DA:894,0
DA:895,0
DA:896,0
DA:897,0
DA:898,0
DA:899,0
DA:900,0
DA:901,0
DA:902,0
DA:903,0
DA:904,0
DA:905,0
DA:908,29
DA:914,9
DA:915,9
DA:916,0
DA:917,9
DA:919,9
DA:923,3
DA:924,1
DA:925,2
DA:926,2
DA:927,1
DA:928,1
DA:929,1
DA:930,1
DA:934,1
DA:935,1
DA:937,1
DA:938,1
DA:940,0
DA:942,1
DA:948,2
DA:949,2
DA:950,2
DA:952,1
DA:954,1
DA:955,1
DA:956,1
DA:957,1
DA:961,1
DA:966,3
DA:970,1
DA:971,1
DA:972,1
DA:973,1
DA:974,1
DA:978,1
DA:979,0
DA:980,0
DA:984,0
DA:986,9
DA:992,127
DA:993,127
DA:994,48
DA:995,34
DA:996,0
DA:997,30
DA:998,14
DA:999,1
DA:1001,127
DA:1003,0
DA:1004,0
DA:1005,0
DA:1006,0
DA:1007,0
DA:1008,0
DA:1009,0
DA:1010,0
DA:1011,0
DA:1012,0
DA:1013,0
DA:1014,0
DA:1017,0
DA:1019,0
DA:1020,0
DA:1021,0
DA:1022,0
DA:1023,0
DA:1024,0
DA:1025,0
DA:1026,0
DA:1027,0
DA:1028,0
DA:1030,0
DA:1031,0
DA:1032,0
DA:1033,0
DA:1034,0
DA:1037,0
DA:1040,15
DA:1041,15
DA:1042,14
DA:1043,0
DA:1044,0
DA:1046,0
DA:1047,0
DA:1048,0
DA:1049,0
DA:1050,0
DA:1051,0
DA:1053,1
DA:1054,1
DA:1055,1
DA:1056,0
DA:1059,1
DA:1060,1
DA:1061,0
DA:1063,1
DA:1064,1
DA:1065,1
DA:1069,0
DA:1070,0
DA:1071,0
DA:1072,0
DA:1075,15
BRF:0
BRH:0
LF:766
LH:471
end_of_record
SF:/home/scott/Projects/AgentProof/aegis-compiler/src/cli.rs
FN:81,_RNvNtCs6BFVBPdMni0_14aegis_compiler3cli11cmd_compile
FN:226,_RNvNtCs6BFVBPdMni0_14aegis_compiler3cli11cmd_inspect
FN:53,_RNvNtCs6BFVBPdMni0_14aegis_compiler3cli11print_usage
FN:348,_RNvNtCs6BFVBPdMni0_14aegis_compiler3cli12empty_policy
FN:295,_RNvNtCs6BFVBPdMni0_14aegis_compiler3cli12run_pipeline
FN:275,_RNvNtCs6BFVBPdMni0_14aegis_compiler3cli18parse_compile_args
FN:23,_RNvNtCs6BFVBPdMni0_14aegis_compiler3cli8cli_main
FN:189,_RNvNtCs6BFVBPdMni0_14aegis_compiler3cli8cmd_dump
FN:152,_RNvNtCs6BFVBPdMni0_14aegis_compiler3cli9cmd_check
FN:172,_RNCNvNtCs6BFVBPdMni0_14aegis_compiler3cli9cmd_check0B5_
FN:173,_RNCNvNtCs6BFVBPdMni0_14aegis_compiler3cli9cmd_checks_0B5_
FN:172,_RNCNvNtCsjN0pppA1BUl_14aegis_compiler3cli9cmd_check0B5_
FN:173,_RNCNvNtCsjN0pppA1BUl_14aegis_compiler3cli9cmd_checks_0B5_
FN:81,_RNvNtCsjN0pppA1BUl_14aegis_compiler3cli11cmd_compile
FN:226,_RNvNtCsjN0pppA1BUl_14aegis_compiler3cli11cmd_inspect
FN:53,_RNvNtCsjN0pppA1BUl_14aegis_compiler3cli11print_usage
FN:348,_RNvNtCsjN0pppA1BUl_14aegis_compiler3cli12empty_policy
FN:295,_RNvNtCsjN0pppA1BUl_14aegis_compiler3cli12run_pipeline
FN:275,_RNvNtCsjN0pppA1BUl_14aegis_compiler3cli18parse_compile_args
FN:23,_RNvNtCsjN0pppA1BUl_14aegis_compiler3cli8cli_main
FN:189,_RNvNtCsjN0pppA1BUl_14aegis_compiler3cli8cmd_dump
FN:152,_RNvNtCsjN0pppA1BUl_14aegis_compiler3cli9cmd_check
FNDA:14,_RNvNtCs6BFVBPdMni0_14aegis_compiler3cli11cmd_compile
FNDA:6,_RNvNtCs6BFVBPdMni0_14aegis_compiler3cli11cmd_inspect
FNDA:5,_RNvNtCs6BFVBPdMni0_14aegis_compiler3cli11print_usage
FNDA:6,_RNvNtCs6BFVBPdMni0_14aegis_compiler3cli12empty_policy
FNDA:16,_RNvNtCs6BFVBPdMni0_14aegis_compiler3cli12run_pipeline
FNDA:14,_RNvNtCs6BFVBPdMni0_14aegis_compiler3cli18parse_compile_args
FNDA:38,_RNvNtCs6BFVBPdMni0_14aegis_compiler3cli8cli_main
FNDA:4,_RNvNtCs6BFVBPdMni0_14aegis_compiler3cli8cmd_dump
FNDA:4,_RNvNtCs6BFVBPdMni0_14aegis_compiler3cli9cmd_check
FNDA:1,_RNCNvNtCs6BFVBPdMni0_14aegis_compiler3cli9cmd_check0B5_
FNDA:1,_RNCNvNtCs6BFVBPdMni0_14aegis_compiler3cli9cmd_checks_0B5_
FNDA:0,_RNCNvNtCsjN0pppA1BUl_14aegis_compiler3cli9cmd_check0B5_
FNDA:0,_RNCNvNtCsjN0pppA1BUl_14aegis_compiler3cli9cmd_checks_0B5_
FNDA:0,_RNvNtCsjN0pppA1BUl_14aegis_compiler3cli11cmd_compile
FNDA:0,_RNvNtCsjN0pppA1BUl_14aegis_compiler3cli11cmd_inspect
FNDA:0,_RNvNtCsjN0pppA1BUl_14aegis_compiler3cli11print_usage
FNDA:0,_RNvNtCsjN0pppA1BUl_14aegis_compiler3cli12empty_policy
FNDA:0,_RNvNtCsjN0pppA1BUl_14aegis_compiler3cli12run_pipeline
FNDA:0,_RNvNtCsjN0pppA1BUl_14aegis_compiler3cli18parse_compile_args
FNDA:0,_RNvNtCsjN0pppA1BUl_14aegis_compiler3cli8cli_main
FNDA:0,_RNvNtCsjN0pppA1BUl_14aegis_compiler3cli8cmd_dump
FNDA:0,_RNvNtCsjN0pppA1BUl_14aegis_compiler3cli9cmd_check
FNF:11
FNH:11
DA:23,38
DA:24,38
DA:25,2
DA:26,2
DA:27,36
DA:29,36
DA:30,36
DA:31,22
DA:32,18
DA:33,14
DA:34,8
DA:35,3
DA:39,3
DA:41,5
DA:42,3
DA:43,3
DA:45,2
DA:46,2
DA:47,2
DA:48,2
DA:51,38
DA:53,5
DA:54,5
DA:75,5
DA:81,14
DA:82,14
DA:83,13
DA:85,1
DA:86,1
DA:91,13
DA:92,12
DA:93,1
DA:94,1
DA:95,1
DA:99,12
DA:101,12
DA:103,12
DA:105,12
DA:106,12
DA:109,12
DA:110,6
DA:112,6
DA:115,12
DA:116,12
DA:117,12
DA:119,0
DA:120,0
DA:121,0
DA:122,0
DA:123,0
DA:126,12
DA:127,12
DA:128,12
DA:129,12
DA:130,12
DA:131,12
DA:132,12
DA:133,12
DA:134,12
DA:135,12
DA:136,0
DA:137,0
DA:138,0
DA:142,12
DA:143,12
DA:145,0
DA:146,0
DA:147,0
DA:150,14
DA:152,4
DA:153,4
DA:154,1
DA:155,1
DA:156,3
DA:158,3
DA:159,3
DA:160,2
DA:161,1
DA:162,1
DA:163,1
DA:167,2
DA:168,2
DA:170,2
DA:171,2
DA:172,2
DA:173,2
DA:174,2
DA:176,2
DA:180,2
DA:182,0
DA:183,0
DA:184,0
DA:187,4
DA:189,4
DA:190,4
DA:191,1
DA:192,1
DA:193,3
DA:195,3
DA:196,3
DA:197,2
DA:198,1
DA:199,1
DA:200,1
DA:204,2
DA:206,2
DA:207,2
DA:208,2
DA:209,1
DA:210,1
DA:211,0
DA:212,0
DA:213,0
DA:217,2
DA:219,0
DA:220,0
DA:221,0
DA:224,4
DA:226,6
DA:227,6
DA:228,1
DA:229,1
DA:230,5
DA:232,5
DA:234,5
DA:235,4
DA:236,4
DA:237,4
DA:240,4
DA:241,3
DA:242,3
DA:243,3
DA:244,3
DA:245,3
DA:246,3
DA:247,3
DA:248,3
DA:249,2
DA:250,2
DA:251,2
DA:252,2
DA:253,2
DA:254,2
DA:255,2
DA:256,2
DA:258,1
DA:259,1
DA:260,1
DA:262,4
DA:264,1
DA:265,1
DA:266,1
DA:269,6
DA:275,14
DA:276,14
DA:277,1
DA:278,13
DA:280,13
DA:282,13
DA:283,11
DA:285,2
DA:288,13
DA:289,14
DA:295,16
DA:296,16
DA:297,16
DA:298,16
DA:302,16
DA:304,16
DA:305,0
DA:306,0
DA:307,0
DA:308,0
DA:309,0
DA:310,16
DA:312,16
DA:313,0
DA:314,16
DA:317,16
DA:318,16
DA:320,16
DA:321,16
DA:322,0
DA:323,0
DA:324,0
DA:325,0
DA:326,0
DA:327,16
DA:329,16
DA:330,0
DA:331,16
DA:334,16
DA:335,16
DA:336,0
DA:337,0
DA:338,0
DA:339,0
DA:340,0
DA:341,16
DA:343,16
DA:344,16
DA:348,6
DA:353,6
DA:354,6
DA:355,6
DA:356,6
DA:357,6
DA:358,6
DA:359,6
DA:360,6
DA:361,6
DA:362,6
DA:363,6
DA:364,6
DA:365,6
DA:366,6
BRF:0
BRH:0
LF:218
LH:181
end_of_record
SF:/home/scott/Projects/AgentProof/aegis-compiler/src/diagnostics/mod.rs
FN:179,_RNvMs0_NtCs6BFVBPdMni0_14aegis_compiler11diagnosticsNtB5_14DiagnosticSink10has_errors
FN:199,_RNvMs0_NtCs6BFVBPdMni0_14aegis_compiler11diagnosticsNtB5_14DiagnosticSink11diagnostics
FN:185,_RNvMs0_NtCs6BFVBPdMni0_14aegis_compiler11diagnosticsNtB5_14DiagnosticSink11error_count
FN:192,_RNvMs0_NtCs6BFVBPdMni0_14aegis_compiler11diagnosticsNtB5_14DiagnosticSink13warning_count
FN:203,_RNvMs0_NtCs6BFVBPdMni0_14aegis_compiler11diagnosticsNtB5_14DiagnosticSink16into_diagnostics
FN:171,_RNvMs0_NtCs6BFVBPdMni0_14aegis_compiler11diagnosticsNtB5_14DiagnosticSink3new
FN:175,_RNvMs0_NtCs6BFVBPdMni0_14aegis_compiler11diagnosticsNtB5_14DiagnosticSink4emit
FN:208,_RNvMs0_NtCs6BFVBPdMni0_14aegis_compiler11diagnosticsNtB5_14DiagnosticSink6render
FN:107,_RNvMs_NtCs6BFVBPdMni0_14aegis_compiler11diagnosticsNtB4_10Diagnostic13type_mismatch
FN:115,_RNvMs_NtCs6BFVBPdMni0_14aegis_compiler11diagnosticsNtB4_10Diagnostic13undefined_var
FN:123,_RNvMs_NtCs6BFVBPdMni0_14aegis_compiler11diagnosticsNtB4_10Diagnostic14undefined_type
FN:131,_RNvMs_NtCs6BFVBPdMni0_14aegis_compiler11diagnosticsNtB4_10Diagnostic18undefined_function
FN:155,_RNvMs_NtCs6BFVBPdMni0_14aegis_compiler11diagnosticsNtB4_10Diagnostic22temporal_outside_proof
FN:139,_RNvMs_NtCs6BFVBPdMni0_14aegis_compiler11diagnosticsNtB4_10Diagnostic22temporal_requires_bool
FN:147,_RNvMs_NtCs6BFVBPdMni0_14aegis_compiler11diagnosticsNtB4_10Diagnostic24within_requires_duration
FN:237,_RNvNtCs6BFVBPdMni0_14aegis_compiler11diagnostics18offset_to_line_col
FN:73,_RNvXNtCs6BFVBPdMni0_14aegis_compiler11diagnosticsNtB2_14DiagnosticCodeNtNtCsbNKrcpplAYV_4core3fmt7Display3fmt
FN:79,_RINvMs_NtCs6BFVBPdMni0_14aegis_compiler11diagnosticsNtB5_10Diagnostic5errorNtNtCs3BtblC6bdc8_5alloc6string6StringEB7_
FN:79,_RINvMs_NtCs6BFVBPdMni0_14aegis_compiler11diagnosticsNtB5_10Diagnostic5errorReEB7_
FN:89,_RINvMs_NtCs6BFVBPdMni0_14aegis_compiler11diagnosticsNtB5_10Diagnostic7warningReEB7_
FN:99,_RINvMs_NtCs6BFVBPdMni0_14aegis_compiler11diagnosticsNtB5_10Diagnostic9with_noteNtNtCs3BtblC6bdc8_5alloc6string6StringEB7_
FN:182,_RNCNvMs0_NtCs6BFVBPdMni0_14aegis_compiler11diagnosticsNtB7_14DiagnosticSink10has_errors0B9_
FN:188,_RNCNvMs0_NtCs6BFVBPdMni0_14aegis_compiler11diagnosticsNtB7_14DiagnosticSink11error_count0B9_
FN:195,_RNCNvMs0_NtCs6BFVBPdMni0_14aegis_compiler11diagnosticsNtB7_14DiagnosticSink13warning_count0B9_
FN:262,_RNvNtNtCsjN0pppA1BUl_14aegis_compiler11diagnostics5tests10dummy_span
FN:504,_RNvNtNtCsjN0pppA1BUl_14aegis_compiler11diagnostics5testss_21offset_mid_first_line
FN:497,_RNvNtNtCsjN0pppA1BUl_14aegis_compiler11diagnostics5testss_21offset_on_second_line
FN:278,_RNvNtNtCsjN0pppA1BUl_14aegis_compiler11diagnostics5testss_26emit_error_sets_has_errors
FN:491,_RNvNtNtCsjN0pppA1BUl_14aegis_compiler11diagnostics5testss_27offset_zero_is_line_1_col_1
FN:380,_RNvNtNtCsjN0pppA1BUl_14aegis_compiler11diagnostics5testss_33with_note_with_span_attaches_note
FN:269,_RNvNtNtCsjN0pppA1BUl_14aegis_compiler11diagnostics5testss_34new_sink_has_no_errors_or_warnings
FN:363,_RNvNtNtCsjN0pppA1BUl_14aegis_compiler11diagnostics5testss_35constructor_stores_span_and_message
FN:412,_RNvNtNtCsjN0pppA1BUl_14aegis_compiler11diagnostics5testss_35undefined_var_emits_e0001_with_name
FN:291,_RNvNtNtCsjN0pppA1BUl_14aegis_compiler11diagnostics5testss_36emit_warning_does_not_set_has_errors
FN:318,_RNvNtNtCsjN0pppA1BUl_14aegis_compiler11diagnostics5testss_36into_diagnostics_returns_all_emitted
FN:419,_RNvNtNtCsjN0pppA1BUl_14aegis_compiler11diagnostics5testss_36undefined_type_emits_e0002_with_name
FN:371,_RNvNtNtCsjN0pppA1BUl_14aegis_compiler11diagnostics5testss_36with_note_without_span_attaches_note
FN:440,_RNvNtNtCsjN0pppA1BUl_14aegis_compiler11diagnostics5testss_36within_requires_duration_emits_e0201
FN:351,_RNvNtNtCsjN0pppA1BUl_14aegis_compiler11diagnostics5testss_37error_constructor_sets_severity_error
FN:475,_RNvNtNtCsjN0pppA1BUl_14aegis_compiler11diagnostics5testss_37render_error_prefix_vs_warning_prefix
FN:389,_RNvNtNtCsjN0pppA1BUl_14aegis_compiler11diagnostics5testss_38with_note_chaining_adds_multiple_notes
FN:331,_RNvNtNtCsjN0pppA1BUl_14aegis_compiler11diagnostics5testss_39diagnostics_slice_matches_emitted_order
FN:455,_RNvNtNtCsjN0pppA1BUl_14aegis_compiler11diagnostics5testss_39render_empty_sink_produces_empty_string
FN:304,_RNvNtNtCsjN0pppA1BUl_14aegis_compiler11diagnostics5testss_40error_and_warning_counts_are_independent
FN:426,_RNvNtNtCsjN0pppA1BUl_14aegis_compiler11diagnostics5testss_40undefined_function_emits_e0003_with_name
FN:461,_RNvNtNtCsjN0pppA1BUl_14aegis_compiler11diagnostics5testss_41render_includes_filename_code_and_message
FN:399,_RNvNtNtCsjN0pppA1BUl_14aegis_compiler11diagnostics5testss_41type_mismatch_emits_e0100_with_type_names
FN:357,_RNvNtNtCsjN0pppA1BUl_14aegis_compiler11diagnostics5testss_41warning_constructor_sets_severity_warning
FN:446,_RNvNtNtCsjN0pppA1BUl_14aegis_compiler11diagnostics5testss_42temporal_outside_proof_emits_e0202_with_op
FN:433,_RNvNtNtCsjN0pppA1BUl_14aegis_compiler11diagnostics5testss_42temporal_requires_bool_emits_e0200_with_op
FN:79,_RINvMs_NtCsjN0pppA1BUl_14aegis_compiler11diagnosticsNtB5_10Diagnostic5errorNtNtCs3BtblC6bdc8_5alloc6string6StringEB7_
FN:79,_RINvMs_NtCsjN0pppA1BUl_14aegis_compiler11diagnosticsNtB5_10Diagnostic5errorReEB7_
FN:89,_RINvMs_NtCsjN0pppA1BUl_14aegis_compiler11diagnosticsNtB5_10Diagnostic7warningReEB7_
FN:99,_RINvMs_NtCsjN0pppA1BUl_14aegis_compiler11diagnosticsNtB5_10Diagnostic9with_noteReEB7_
FN:182,_RNCNvMs0_NtCsjN0pppA1BUl_14aegis_compiler11diagnosticsNtB7_14DiagnosticSink10has_errors0B9_
FN:188,_RNCNvMs0_NtCsjN0pppA1BUl_14aegis_compiler11diagnosticsNtB7_14DiagnosticSink11error_count0B9_
FN:195,_RNCNvMs0_NtCsjN0pppA1BUl_14aegis_compiler11diagnosticsNtB7_14DiagnosticSink13warning_count0B9_
FN:179,_RNvMs0_NtCsjN0pppA1BUl_14aegis_compiler11diagnosticsNtB5_14DiagnosticSink10has_errors
FN:199,_RNvMs0_NtCsjN0pppA1BUl_14aegis_compiler11diagnosticsNtB5_14DiagnosticSink11diagnostics
FN:185,_RNvMs0_NtCsjN0pppA1BUl_14aegis_compiler11diagnosticsNtB5_14DiagnosticSink11error_count
FN:192,_RNvMs0_NtCsjN0pppA1BUl_14aegis_compiler11diagnosticsNtB5_14DiagnosticSink13warning_count
FN:203,_RNvMs0_NtCsjN0pppA1BUl_14aegis_compiler11diagnosticsNtB5_14DiagnosticSink16into_diagnostics
FN:171,_RNvMs0_NtCsjN0pppA1BUl_14aegis_compiler11diagnosticsNtB5_14DiagnosticSink3new
FN:175,_RNvMs0_NtCsjN0pppA1BUl_14aegis_compiler11diagnosticsNtB5_14DiagnosticSink4emit
FN:208,_RNvMs0_NtCsjN0pppA1BUl_14aegis_compiler11diagnosticsNtB5_14DiagnosticSink6render
FN:107,_RNvMs_NtCsjN0pppA1BUl_14aegis_compiler11diagnosticsNtB4_10Diagnostic13type_mismatch
FN:115,_RNvMs_NtCsjN0pppA1BUl_14aegis_compiler11diagnosticsNtB4_10Diagnostic13undefined_var
FN:123,_RNvMs_NtCsjN0pppA1BUl_14aegis_compiler11diagnosticsNtB4_10Diagnostic14undefined_type
FN:131,_RNvMs_NtCsjN0pppA1BUl_14aegis_compiler11diagnosticsNtB4_10Diagnostic18undefined_function
FN:155,_RNvMs_NtCsjN0pppA1BUl_14aegis_compiler11diagnosticsNtB4_10Diagnostic22temporal_outside_proof
FN:139,_RNvMs_NtCsjN0pppA1BUl_14aegis_compiler11diagnosticsNtB4_10Diagnostic22temporal_requires_bool
FN:147,_RNvMs_NtCsjN0pppA1BUl_14aegis_compiler11diagnosticsNtB4_10Diagnostic24within_requires_duration
FN:237,_RNvNtCsjN0pppA1BUl_14aegis_compiler11diagnostics18offset_to_line_col
FN:73,_RNvXNtCsjN0pppA1BUl_14aegis_compiler11diagnosticsNtB2_14DiagnosticCodeNtNtCsbNKrcpplAYV_4core3fmt7Display3fmt
FNDA:277,_RNvMs0_NtCs6BFVBPdMni0_14aegis_compiler11diagnosticsNtB5_14DiagnosticSink10has_errors
FNDA:35,_RNvMs0_NtCs6BFVBPdMni0_14aegis_compiler11diagnosticsNtB5_14DiagnosticSink11diagnostics
FNDA:0,_RNvMs0_NtCs6BFVBPdMni0_14aegis_compiler11diagnosticsNtB5_14DiagnosticSink11error_count
FNDA:33,_RNvMs0_NtCs6BFVBPdMni0_14aegis_compiler11diagnosticsNtB5_14DiagnosticSink13warning_count
FNDA:3,_RNvMs0_NtCs6BFVBPdMni0_14aegis_compiler11diagnosticsNtB5_14DiagnosticSink16into_diagnostics
FNDA:306,_RNvMs0_NtCs6BFVBPdMni0_14aegis_compiler11diagnosticsNtB5_14DiagnosticSink3new
FNDA:45,_RNvMs0_NtCs6BFVBPdMni0_14aegis_compiler11diagnosticsNtB5_14DiagnosticSink4emit
FNDA:2,_RNvMs0_NtCs6BFVBPdMni0_14aegis_compiler11diagnosticsNtB5_14DiagnosticSink6render
FNDA:1,_RNvMs_NtCs6BFVBPdMni0_14aegis_compiler11diagnosticsNtB4_10Diagnostic13type_mismatch
FNDA:1,_RNvMs_NtCs6BFVBPdMni0_14aegis_compiler11diagnosticsNtB4_10Diagnostic13undefined_var
FNDA:1,_RNvMs_NtCs6BFVBPdMni0_14aegis_compiler11diagnosticsNtB4_10Diagnostic14undefined_type
FNDA:0,_RNvMs_NtCs6BFVBPdMni0_14aegis_compiler11diagnosticsNtB4_10Diagnostic18undefined_function
FNDA:4,_RNvMs_NtCs6BFVBPdMni0_14aegis_compiler11diagnosticsNtB4_10Diagnostic22temporal_outside_proof
FNDA:4,_RNvMs_NtCs6BFVBPdMni0_14aegis_compiler11diagnosticsNtB4_10Diagnostic22temporal_requires_bool
FNDA:2,_RNvMs_NtCs6BFVBPdMni0_14aegis_compiler11diagnosticsNtB4_10Diagnostic24within_requires_duration
FNDA:2,_RNvNtCs6BFVBPdMni0_14aegis_compiler11diagnostics18offset_to_line_col
FNDA:2,_RNvXNtCs6BFVBPdMni0_14aegis_compiler11diagnosticsNtB2_14DiagnosticCodeNtNtCsbNKrcpplAYV_4core3fmt7Display3fmt
FNDA:37,_RINvMs_NtCs6BFVBPdMni0_14aegis_compiler11diagnosticsNtB5_10Diagnostic5errorNtNtCs3BtblC6bdc8_5alloc6string6StringEB7_
FNDA:4,_RINvMs_NtCs6BFVBPdMni0_14aegis_compiler11diagnosticsNtB5_10Diagnostic5errorReEB7_
FNDA:4,_RINvMs_NtCs6BFVBPdMni0_14aegis_compiler11diagnosticsNtB5_10Diagnostic7warningReEB7_
FNDA:1,_RINvMs_NtCs6BFVBPdMni0_14aegis_compiler11diagnosticsNtB5_10Diagnostic9with_noteNtNtCs3BtblC6bdc8_5alloc6string6StringEB7_
FNDA:2,_RNCNvMs0_NtCs6BFVBPdMni0_14aegis_compiler11diagnosticsNtB7_14DiagnosticSink10has_errors0B9_
FNDA:0,_RNCNvMs0_NtCs6BFVBPdMni0_14aegis_compiler11diagnosticsNtB7_14DiagnosticSink11error_count0B9_
FNDA:0,_RNCNvMs0_NtCs6BFVBPdMni0_14aegis_compiler11diagnosticsNtB7_14DiagnosticSink13warning_count0B9_
FNDA:23,_RNvNtNtCsjN0pppA1BUl_14aegis_compiler11diagnostics5tests10dummy_span
FNDA:1,_RNvNtNtCsjN0pppA1BUl_14aegis_compiler11diagnostics5testss_21offset_mid_first_line
FNDA:1,_RNvNtNtCsjN0pppA1BUl_14aegis_compiler11diagnostics5testss_21offset_on_second_line
FNDA:1,_RNvNtNtCsjN0pppA1BUl_14aegis_compiler11diagnostics5testss_26emit_error_sets_has_errors
FNDA:1,_RNvNtNtCsjN0pppA1BUl_14aegis_compiler11diagnostics5testss_27offset_zero_is_line_1_col_1
FNDA:1,_RNvNtNtCsjN0pppA1BUl_14aegis_compiler11diagnostics5testss_33with_note_with_span_attaches_note
FNDA:1,_RNvNtNtCsjN0pppA1BUl_14aegis_compiler11diagnostics5testss_34new_sink_has_no_errors_or_warnings
FNDA:1,_RNvNtNtCsjN0pppA1BUl_14aegis_compiler11diagnostics5testss_35constructor_stores_span_and_message
FNDA:1,_RNvNtNtCsjN0pppA1BUl_14aegis_compiler11diagnostics5testss_35undefined_var_emits_e0001_with_name
FNDA:1,_RNvNtNtCsjN0pppA1BUl_14aegis_compiler11diagnostics5testss_36emit_warning_does_not_set_has_errors
FNDA:1,_RNvNtNtCsjN0pppA1BUl_14aegis_compiler11diagnostics5testss_36into_diagnostics_returns_all_emitted
FNDA:1,_RNvNtNtCsjN0pppA1BUl_14aegis_compiler11diagnostics5testss_36undefined_type_emits_e0002_with_name
FNDA:1,_RNvNtNtCsjN0pppA1BUl_14aegis_compiler11diagnostics5testss_36with_note_without_span_attaches_note
FNDA:1,_RNvNtNtCsjN0pppA1BUl_14aegis_compiler11diagnostics5testss_36within_requires_duration_emits_e0201
FNDA:1,_RNvNtNtCsjN0pppA1BUl_14aegis_compiler11diagnostics5testss_37error_constructor_sets_severity_error
FNDA:1,_RNvNtNtCsjN0pppA1BUl_14aegis_compiler11diagnostics5testss_37render_error_prefix_vs_warning_prefix
FNDA:1,_RNvNtNtCsjN0pppA1BUl_14aegis_compiler11diagnostics5testss_38with_note_chaining_adds_multiple_notes
FNDA:1,_RNvNtNtCsjN0pppA1BUl_14aegis_compiler11diagnostics5testss_39diagnostics_slice_matches_emitted_order
FNDA:1,_RNvNtNtCsjN0pppA1BUl_14aegis_compiler11diagnostics5testss_39render_empty_sink_produces_empty_string
FNDA:1,_RNvNtNtCsjN0pppA1BUl_14aegis_compiler11diagnostics5testss_40error_and_warning_counts_are_independent
FNDA:1,_RNvNtNtCsjN0pppA1BUl_14aegis_compiler11diagnostics5testss_40undefined_function_emits_e0003_with_name
FNDA:1,_RNvNtNtCsjN0pppA1BUl_14aegis_compiler11diagnostics5testss_41render_includes_filename_code_and_message
FNDA:1,_RNvNtNtCsjN0pppA1BUl_14aegis_compiler11diagnostics5testss_41type_mismatch_emits_e0100_with_type_names
FNDA:1,_RNvNtNtCsjN0pppA1BUl_14aegis_compiler11diagnostics5testss_41warning_constructor_sets_severity_warning
FNDA:1,_RNvNtNtCsjN0pppA1BUl_14aegis_compiler11diagnostics5testss_42temporal_outside_proof_emits_e0202_with_op
FNDA:1,_RNvNtNtCsjN0pppA1BUl_14aegis_compiler11diagnostics5testss_42temporal_requires_bool_emits_e0200_with_op
FNDA:6,_RINvMs_NtCsjN0pppA1BUl_14aegis_compiler11diagnosticsNtB5_10Diagnostic5errorNtNtCs3BtblC6bdc8_5alloc6string6StringEB7_
FNDA:14,_RINvMs_NtCsjN0pppA1BUl_14aegis_compiler11diagnosticsNtB5_10Diagnostic5errorReEB7_
FNDA:5,_RINvMs_NtCsjN0pppA1BUl_14aegis_compiler11diagnosticsNtB5_10Diagnostic7warningReEB7_
FNDA:4,_RINvMs_NtCsjN0pppA1BUl_14aegis_compiler11diagnosticsNtB5_10Diagnostic9with_noteReEB7_
FNDA:2,_RNCNvMs0_NtCsjN0pppA1BUl_14aegis_compiler11diagnosticsNtB7_14DiagnosticSink10has_errors0B9_
FNDA:5,_RNCNvMs0_NtCsjN0pppA1BUl_14aegis_compiler11diagnosticsNtB7_14DiagnosticSink11error_count0B9_
FNDA:5,_RNCNvMs0_NtCsjN0pppA1BUl_14aegis_compiler11diagnosticsNtB7_14DiagnosticSink13warning_count0B9_
FNDA:3,_RNvMs0_NtCsjN0pppA1BUl_14aegis_compiler11diagnosticsNtB5_14DiagnosticSink10has_errors
FNDA:2,_RNvMs0_NtCsjN0pppA1BUl_14aegis_compiler11diagnosticsNtB5_14DiagnosticSink11diagnostics
FNDA:4,_RNvMs0_NtCsjN0pppA1BUl_14aegis_compiler11diagnosticsNtB5_14DiagnosticSink11error_count
FNDA:4,_RNvMs0_NtCsjN0pppA1BUl_14aegis_compiler11diagnosticsNtB5_14DiagnosticSink13warning_count
FNDA:1,_RNvMs0_NtCsjN0pppA1BUl_14aegis_compiler11diagnosticsNtB5_14DiagnosticSink16into_diagnostics
FNDA:9,_RNvMs0_NtCsjN0pppA1BUl_14aegis_compiler11diagnosticsNtB5_14DiagnosticSink3new
FNDA:12,_RNvMs0_NtCsjN0pppA1BUl_14aegis_compiler11diagnosticsNtB5_14DiagnosticSink4emit
FNDA:3,_RNvMs0_NtCsjN0pppA1BUl_14aegis_compiler11diagnosticsNtB5_14DiagnosticSink6render
FNDA:1,_RNvMs_NtCsjN0pppA1BUl_14aegis_compiler11diagnosticsNtB4_10Diagnostic13type_mismatch
FNDA:1,_RNvMs_NtCsjN0pppA1BUl_14aegis_compiler11diagnosticsNtB4_10Diagnostic13undefined_var
FNDA:1,_RNvMs_NtCsjN0pppA1BUl_14aegis_compiler11diagnosticsNtB4_10Diagnostic14undefined_type
FNDA:1,_RNvMs_NtCsjN0pppA1BUl_14aegis_compiler11diagnosticsNtB4_10Diagnostic18undefined_function
FNDA:1,_RNvMs_NtCsjN0pppA1BUl_14aegis_compiler11diagnosticsNtB4_10Diagnostic22temporal_outside_proof
FNDA:1,_RNvMs_NtCsjN0pppA1BUl_14aegis_compiler11diagnosticsNtB4_10Diagnostic22temporal_requires_bool
FNDA:1,_RNvMs_NtCsjN0pppA1BUl_14aegis_compiler11diagnosticsNtB4_10Diagnostic24within_requires_duration
FNDA:6,_RNvNtCsjN0pppA1BUl_14aegis_compiler11diagnostics18offset_to_line_col
FNDA:3,_RNvXNtCsjN0pppA1BUl_14aegis_compiler11diagnosticsNtB2_14DiagnosticCodeNtNtCsbNKrcpplAYV_4core3fmt7Display3fmt
FNF:49
FNH:49
DA:73,5
DA:74,5
DA:75,5
DA:79,61
DA:80,61
DA:81,61
DA:82,61
DA:83,61
DA:84,61
DA:85,61
DA:86,61
DA:87,61
DA:89,9
DA:90,9
DA:91,9
DA:92,9
DA:93,9
DA:94,9
DA:95,9
DA:96,9
DA:97,9
DA:99,5
DA:100,5
DA:101,5
DA:102,5
DA:103,5
DA:104,5
DA:105,5
DA:107,2
DA:108,2
DA:109,2
DA:110,2
DA:111,2
DA:113,2
DA:115,2
DA:116,2
DA:117,2
DA:118,2
DA:119,2
DA:121,2
DA:123,2
DA:124,2
DA:125,2
DA:126,2
DA:127,2
DA:129,2
DA:131,1
DA:132,1
DA:133,1
DA:134,1
DA:135,1
DA:137,1
DA:139,5
DA:140,5
DA:141,5
DA:142,5
DA:143,5
DA:145,5
DA:147,3
DA:148,3
DA:149,3
DA:150,3
DA:153,3
DA:155,5
DA:156,5
DA:157,5
DA:158,5
DA:159,5
DA:161,5
DA:171,315
DA:172,315
DA:173,315
DA:175,57
DA:176,57
DA:177,57
DA:179,280
DA:180,280
DA:181,280
DA:182,280
DA:183,280
DA:185,4
DA:186,4
DA:187,4
DA:188,5
DA:189,4
DA:190,4
DA:192,37
DA:193,37
DA:194,37
DA:195,37
DA:196,37
DA:197,37
DA:199,37
DA:200,37
DA:201,37
DA:203,4
DA:204,4
DA:205,4
DA:208,5
DA:209,5
DA:210,5
DA:211,5
DA:212,4
DA:213,1
DA:215,5
DA:216,5
DA:217,5
DA:218,5
DA:219,5
DA:220,5
DA:221,0
DA:222,0
DA:223,0
DA:224,0
DA:225,0
DA:226,0
DA:227,0
DA:228,0
DA:229,0
DA:231,5
DA:233,5
DA:234,5
DA:237,8
DA:238,8
DA:239,8
DA:240,8
DA:241,84
DA:242,84
DA:243,8
DA:244,76
DA:245,76
DA:246,2
DA:247,2
DA:248,74
DA:249,74
DA:250,74
DA:252,8
DA:253,8
DA:262,23
DA:263,23
DA:264,23
DA:269,1
DA:270,1
DA:271,1
DA:272,1
DA:273,1
DA:274,1
DA:275,1
DA:278,1
DA:279,1
DA:280,1
DA:281,1
DA:282,1
DA:285,1
DA:286,1
DA:287,1
DA:288,1
DA:291,1
DA:292,1
DA:293,1
DA:294,1
DA:295,1
DA:298,1
DA:299,1
DA:300,1
DA:301,1
DA:304,1
DA:305,1
DA:306,1
DA:307,1
DA:308,1
DA:309,1
DA:310,1
DA:313,1
DA:314,1
DA:315,1
DA:318,1
DA:319,1
DA:320,1
DA:321,1
DA:322,1
DA:323,1
DA:326,1
DA:327,1
DA:328,1
DA:331,1
DA:332,1
DA:333,1
DA:334,1
DA:335,1
DA:338,1
DA:339,1
DA:340,1
DA:343,1
DA:344,1
DA:345,1
DA:346,1
DA:351,1
DA:352,1
DA:353,1
DA:354,1
DA:357,1
DA:358,1
DA:359,1
DA:360,1
DA:363,1
DA:364,1
DA:365,1
DA:366,1
DA:367,1
DA:368,1
DA:371,1
DA:372,1
DA:373,1
DA:374,1
DA:375,1
DA:376,1
DA:377,1
DA:380,1
DA:381,1
DA:382,1
DA:383,1
DA:384,1
DA:385,1
DA:386,1
DA:389,1
DA:390,1
DA:391,1
DA:392,1
DA:393,1
DA:394,1
DA:399,1
DA:400,1
DA:401,1
DA:402,1
DA:403,1
DA:405,1
DA:406,1
DA:407,1
DA:408,1
DA:409,1
DA:412,1
DA:413,1
DA:414,1
DA:415,1
DA:416,1
DA:419,1
DA:420,1
DA:421,1
DA:422,1
DA:423,1
DA:426,1
DA:427,1
DA:428,1
DA:429,1
DA:430,1
DA:433,1
DA:434,1
DA:435,1
DA:436,1
DA:437,1
DA:440,1
DA:441,1
DA:442,1
DA:443,1
DA:446,1
DA:447,1
DA:448,1
DA:449,1
DA:450,1
DA:455,1
DA:456,1
DA:457,1
DA:458,1
DA:461,1
DA:462,1
DA:463,1
DA:464,1
DA:465,1
DA:468,1
DA:469,1
DA:470,1
DA:471,1
DA:472,1
DA:475,1
DA:476,1
DA:477,1
DA:478,1
DA:479,1
DA:480,1
DA:483,1
DA:484,1
DA:485,1
DA:486,1
DA:491,1
DA:492,1
DA:493,1
DA:494,1
DA:497,1
DA:499,1
DA:500,1
DA:501,1
DA:504,1
DA:505,1
DA:506,1
DA:507,1
BRF:0
BRH:0
LF:309
LH:300
end_of_record
SF:/home/scott/Projects/AgentProof/aegis-compiler/src/ir/mod.rs
FN:440,_RNvMs_NtCs6BFVBPdMni0_14aegis_compiler2irNtB4_19StateMachineBuilder13compile_never
FN:457,_RNvMs_NtCs6BFVBPdMni0_14aegis_compiler2irNtB4_19StateMachineBuilder13compile_until
FN:322,_RNvMs_NtCs6BFVBPdMni0_14aegis_compiler2irNtB4_19StateMachineBuilder14compile_always
FN:371,_RNvMs_NtCs6BFVBPdMni0_14aegis_compiler2irNtB4_19StateMachineBuilder18compile_eventually
FN:314,_RNvMs_NtCs6BFVBPdMni0_14aegis_compiler2irNtB4_19StateMachineBuilder3new
FN:514,_RNvMs_NtCs6BFVBPdMni0_14aegis_compiler2irNtB4_19StateMachineBuilder7next_id
FN:308,_RNvXNtCs6BFVBPdMni0_14aegis_compiler2irNtB2_19StateMachineBuilderNtNtCsbNKrcpplAYV_4core7default7Default7default
FN:308,_RNvXNtCsjN0pppA1BUl_14aegis_compiler2irNtB2_19StateMachineBuilderNtNtCsbNKrcpplAYV_4core7default7Default7default
FN:535,_RNvNtNtCsjN0pppA1BUl_14aegis_compiler2ir5tests4name
FN:527,_RNvNtNtCsjN0pppA1BUl_14aegis_compiler2ir5tests8lit_true
FN:531,_RNvNtNtCsjN0pppA1BUl_14aegis_compiler2ir5tests9lit_false
FN:936,_RNvNtNtCsjN0pppA1BUl_14aegis_compiler2ir5testss_19until_kind_is_until
FN:542,_RNvNtNtCsjN0pppA1BUl_14aegis_compiler2ir5testss_21always_has_two_states
FN:586,_RNvNtNtCsjN0pppA1BUl_14aegis_compiler2ir5testss_21always_kind_is_always
FN:806,_RNvNtNtCsjN0pppA1BUl_14aegis_compiler2ir5testss_21never_has_no_deadline
FN:947,_RNvNtNtCsjN0pppA1BUl_14aegis_compiler2ir5testss_21until_has_no_deadline
FN:814,_RNvNtNtCsjN0pppA1BUl_14aegis_compiler2ir5testss_22until_has_three_states
FN:549,_RNvNtNtCsjN0pppA1BUl_14aegis_compiler2ir5testss_24always_state_0_is_active
FN:825,_RNvNtNtCsjN0pppA1BUl_14aegis_compiler2ir5testss_24until_state_0_is_holding
FN:565,_RNvNtNtCsjN0pppA1BUl_14aegis_compiler2ir5testss_25always_initial_state_is_0
FN:849,_RNvNtNtCsjN0pppA1BUl_14aegis_compiler2ir5testss_25until_state_2_is_violated
FN:593,_RNvNtNtCsjN0pppA1BUl_14aegis_compiler2ir5testss_26always_has_two_transitions
FN:557,_RNvNtNtCsjN0pppA1BUl_14aegis_compiler2ir5testss_26always_state_1_is_violated
FN:914,_RNvNtNtCsjN0pppA1BUl_14aegis_compiler2ir5testss_26until_accepting_state_is_1
FN:925,_RNvNtNtCsjN0pppA1BUl_14aegis_compiler2ir5testss_26until_violating_state_is_2
FN:861,_RNvNtNtCsjN0pppA1BUl_14aegis_compiler2ir5testss_27until_has_three_transitions
FN:572,_RNvNtNtCsjN0pppA1BUl_14aegis_compiler2ir5testss_28always_accepting_states_is_0
FN:579,_RNvNtNtCsjN0pppA1BUl_14aegis_compiler2ir5testss_28always_violating_states_is_1
FN:981,_RNvNtNtCsjN0pppA1BUl_14aegis_compiler2ir5testss_28fresh_builder_starts_id_at_0
FN:754,_RNvNtNtCsjN0pppA1BUl_14aegis_compiler2ir5testss_29eventually_kind_is_eventually
FN:670,_RNvNtNtCsjN0pppA1BUl_14aegis_compiler2ir5testss_29eventually_state_0_is_waiting
FN:900,_RNvNtNtCsjN0pppA1BUl_14aegis_compiler2ir5testss_30until_hold_failure_goes_0_to_2
FN:631,_RNvNtNtCsjN0pppA1BUl_14aegis_compiler2ir5testss_31always_without_deadline_is_none
FN:697,_RNvNtNtCsjN0pppA1BUl_14aegis_compiler2ir5testss_31eventually_accepting_state_is_1
FN:678,_RNvNtNtCsjN0pppA1BUl_14aegis_compiler2ir5testss_31eventually_state_1_is_satisfied
FN:620,_RNvNtNtCsjN0pppA1BUl_14aegis_compiler2ir5testss_34always_with_deadline_stores_millis
FN:837,_RNvNtNtCsjN0pppA1BUl_14aegis_compiler2ir5testss_35until_state_1_is_released_satisfied
FN:872,_RNvNtNtCsjN0pppA1BUl_14aegis_compiler2ir5testss_36until_release_transition_goes_0_to_1
FN:638,_RNvNtNtCsjN0pppA1BUl_14aegis_compiler2ir5testss_37always_stores_name_and_invariant_name
FN:781,_RNvNtNtCsjN0pppA1BUl_14aegis_compiler2ir5testss_39never_delegates_to_always_with_negation
FN:790,_RNvNtNtCsjN0pppA1BUl_14aegis_compiler2ir5testss_39never_predicate_is_wrapped_in_unary_not
FN:659,_RNvNtNtCsjN0pppA1BUl_14aegis_compiler2ir5testss_41eventually_with_deadline_has_three_states
FN:886,_RNvNtNtCsjN0pppA1BUl_14aegis_compiler2ir5testss_41until_hold_transition_is_self_loop_0_to_0
FN:652,_RNvNtNtCsjN0pppA1BUl_14aegis_compiler2ir5testss_42eventually_without_deadline_has_two_states
FN:960,_RNvNtNtCsjN0pppA1BUl_14aegis_compiler2ir5testss_42sequential_build_assigns_ids_starting_at_0
FN:685,_RNvNtNtCsjN0pppA1BUl_14aegis_compiler2ir5testss_44eventually_with_deadline_state_2_is_violated
FN:711,_RNvNtNtCsjN0pppA1BUl_14aegis_compiler2ir5testss_45eventually_with_deadline_violating_state_is_2
FN:737,_RNvNtNtCsjN0pppA1BUl_14aegis_compiler2ir5testss_46eventually_timeout_transition_goes_from_0_to_2
FN:768,_RNvNtNtCsjN0pppA1BUl_14aegis_compiler2ir5testss_46eventually_with_deadline_has_three_transitions
FN:722,_RNvNtNtCsjN0pppA1BUl_14aegis_compiler2ir5testss_47eventually_with_deadline_has_timeout_transition
FN:761,_RNvNtNtCsjN0pppA1BUl_14aegis_compiler2ir5testss_47eventually_without_deadline_has_two_transitions
FN:969,_RNvNtNtCsjN0pppA1BUl_14aegis_compiler2ir5testss_47ids_are_unique_across_different_compile_methods
FN:600,_RNvNtNtCsjN0pppA1BUl_14aegis_compiler2ir5testss_49always_first_transition_is_self_loop_on_predicate
FN:704,_RNvNtNtCsjN0pppA1BUl_14aegis_compiler2ir5testss_51eventually_without_deadline_has_no_violating_states
FN:610,_RNvNtNtCsjN0pppA1BUl_14aegis_compiler2ir5testss_52always_second_transition_goes_to_violated_on_negated
FN:747,_RNCNvNtNtCsjN0pppA1BUl_14aegis_compiler2ir5testss_46eventually_timeout_transition_goes_from_0_to_20B7_
FN:732,_RNCNvNtNtCsjN0pppA1BUl_14aegis_compiler2ir5testss_47eventually_with_deadline_has_timeout_transition0B7_
FN:440,_RNvMs_NtCsjN0pppA1BUl_14aegis_compiler2irNtB4_19StateMachineBuilder13compile_never
FN:457,_RNvMs_NtCsjN0pppA1BUl_14aegis_compiler2irNtB4_19StateMachineBuilder13compile_until
FN:322,_RNvMs_NtCsjN0pppA1BUl_14aegis_compiler2irNtB4_19StateMachineBuilder14compile_always
FN:371,_RNvMs_NtCsjN0pppA1BUl_14aegis_compiler2irNtB4_19StateMachineBuilder18compile_eventually
FN:314,_RNvMs_NtCsjN0pppA1BUl_14aegis_compiler2irNtB4_19StateMachineBuilder3new
FN:514,_RNvMs_NtCsjN0pppA1BUl_14aegis_compiler2irNtB4_19StateMachineBuilder7next_id
FNDA:11,_RNvMs_NtCs6BFVBPdMni0_14aegis_compiler2irNtB4_19StateMachineBuilder13compile_never
FNDA:2,_RNvMs_NtCs6BFVBPdMni0_14aegis_compiler2irNtB4_19StateMachineBuilder13compile_until
FNDA:31,_RNvMs_NtCs6BFVBPdMni0_14aegis_compiler2irNtB4_19StateMachineBuilder14compile_always
FNDA:5,_RNvMs_NtCs6BFVBPdMni0_14aegis_compiler2irNtB4_19StateMachineBuilder18compile_eventually
FNDA:109,_RNvMs_NtCs6BFVBPdMni0_14aegis_compiler2irNtB4_19StateMachineBuilder3new
FNDA:38,_RNvMs_NtCs6BFVBPdMni0_14aegis_compiler2irNtB4_19StateMachineBuilder7next_id
FNDA:0,_RNvXNtCs6BFVBPdMni0_14aegis_compiler2irNtB2_19StateMachineBuilderNtNtCsbNKrcpplAYV_4core7default7Default7default
FNDA:0,_RNvXNtCsjN0pppA1BUl_14aegis_compiler2irNtB2_19StateMachineBuilderNtNtCsbNKrcpplAYV_4core7default7Default7default
FNDA:96,_RNvNtNtCsjN0pppA1BUl_14aegis_compiler2ir5tests4name
FNDA:48,_RNvNtNtCsjN0pppA1BUl_14aegis_compiler2ir5tests8lit_true
FNDA:13,_RNvNtNtCsjN0pppA1BUl_14aegis_compiler2ir5tests9lit_false
FNDA:1,_RNvNtNtCsjN0pppA1BUl_14aegis_compiler2ir5testss_19until_kind_is_until
FNDA:1,_RNvNtNtCsjN0pppA1BUl_14aegis_compiler2ir5testss_21always_has_two_states
FNDA:1,_RNvNtNtCsjN0pppA1BUl_14aegis_compiler2ir5testss_21always_kind_is_always
FNDA:1,_RNvNtNtCsjN0pppA1BUl_14aegis_compiler2ir5testss_21never_has_no_deadline
FNDA:1,_RNvNtNtCsjN0pppA1BUl_14aegis_compiler2ir5testss_21until_has_no_deadline
FNDA:1,_RNvNtNtCsjN0pppA1BUl_14aegis_compiler2ir5testss_22until_has_three_states
FNDA:1,_RNvNtNtCsjN0pppA1BUl_14aegis_compiler2ir5testss_24always_state_0_is_active
FNDA:1,_RNvNtNtCsjN0pppA1BUl_14aegis_compiler2ir5testss_24until_state_0_is_holding
FNDA:1,_RNvNtNtCsjN0pppA1BUl_14aegis_compiler2ir5testss_25always_initial_state_is_0
FNDA:1,_RNvNtNtCsjN0pppA1BUl_14aegis_compiler2ir5testss_25until_state_2_is_violated
FNDA:1,_RNvNtNtCsjN0pppA1BUl_14aegis_compiler2ir5testss_26always_has_two_transitions
FNDA:1,_RNvNtNtCsjN0pppA1BUl_14aegis_compiler2ir5testss_26always_state_1_is_violated
FNDA:1,_RNvNtNtCsjN0pppA1BUl_14aegis_compiler2ir5testss_26until_accepting_state_is_1
FNDA:1,_RNvNtNtCsjN0pppA1BUl_14aegis_compiler2ir5testss_26until_violating_state_is_2
FNDA:1,_RNvNtNtCsjN0pppA1BUl_14aegis_compiler2ir5testss_27until_has_three_transitions
FNDA:1,_RNvNtNtCsjN0pppA1BUl_14aegis_compiler2ir5testss_28always_accepting_states_is_0
FNDA:1,_RNvNtNtCsjN0pppA1BUl_14aegis_compiler2ir5testss_28always_violating_states_is_1
FNDA:1,_RNvNtNtCsjN0pppA1BUl_14aegis_compiler2ir5testss_28fresh_builder_starts_id_at_0
FNDA:1,_RNvNtNtCsjN0pppA1BUl_14aegis_compiler2ir5testss_29eventually_kind_is_eventually
FNDA:1,_RNvNtNtCsjN0pppA1BUl_14aegis_compiler2ir5testss_29eventually_state_0_is_waiting
FNDA:1,_RNvNtNtCsjN0pppA1BUl_14aegis_compiler2ir5testss_30until_hold_failure_goes_0_to_2
FNDA:1,_RNvNtNtCsjN0pppA1BUl_14aegis_compiler2ir5testss_31always_without_deadline_is_none
FNDA:1,_RNvNtNtCsjN0pppA1BUl_14aegis_compiler2ir5testss_31eventually_accepting_state_is_1
FNDA:1,_RNvNtNtCsjN0pppA1BUl_14aegis_compiler2ir5testss_31eventually_state_1_is_satisfied
FNDA:1,_RNvNtNtCsjN0pppA1BUl_14aegis_compiler2ir5testss_34always_with_deadline_stores_millis
FNDA:1,_RNvNtNtCsjN0pppA1BUl_14aegis_compiler2ir5testss_35until_state_1_is_released_satisfied
FNDA:1,_RNvNtNtCsjN0pppA1BUl_14aegis_compiler2ir5testss_36until_release_transition_goes_0_to_1
FNDA:1,_RNvNtNtCsjN0pppA1BUl_14aegis_compiler2ir5testss_37always_stores_name_and_invariant_name
FNDA:1,_RNvNtNtCsjN0pppA1BUl_14aegis_compiler2ir5testss_39never_delegates_to_always_with_negation
FNDA:1,_RNvNtNtCsjN0pppA1BUl_14aegis_compiler2ir5testss_39never_predicate_is_wrapped_in_unary_not
FNDA:1,_RNvNtNtCsjN0pppA1BUl_14aegis_compiler2ir5testss_41eventually_with_deadline_has_three_states
FNDA:1,_RNvNtNtCsjN0pppA1BUl_14aegis_compiler2ir5testss_41until_hold_transition_is_self_loop_0_to_0
FNDA:1,_RNvNtNtCsjN0pppA1BUl_14aegis_compiler2ir5testss_42eventually_without_deadline_has_two_states
FNDA:1,_RNvNtNtCsjN0pppA1BUl_14aegis_compiler2ir5testss_42sequential_build_assigns_ids_starting_at_0
FNDA:1,_RNvNtNtCsjN0pppA1BUl_14aegis_compiler2ir5testss_44eventually_with_deadline_state_2_is_violated
FNDA:1,_RNvNtNtCsjN0pppA1BUl_14aegis_compiler2ir5testss_45eventually_with_deadline_violating_state_is_2
FNDA:1,_RNvNtNtCsjN0pppA1BUl_14aegis_compiler2ir5testss_46eventually_timeout_transition_goes_from_0_to_2
FNDA:1,_RNvNtNtCsjN0pppA1BUl_14aegis_compiler2ir5testss_46eventually_with_deadline_has_three_transitions
FNDA:1,_RNvNtNtCsjN0pppA1BUl_14aegis_compiler2ir5testss_47eventually_with_deadline_has_timeout_transition
FNDA:1,_RNvNtNtCsjN0pppA1BUl_14aegis_compiler2ir5testss_47eventually_without_deadline_has_two_transitions
FNDA:1,_RNvNtNtCsjN0pppA1BUl_14aegis_compiler2ir5testss_47ids_are_unique_across_different_compile_methods
FNDA:1,_RNvNtNtCsjN0pppA1BUl_14aegis_compiler2ir5testss_49always_first_transition_is_self_loop_on_predicate
FNDA:1,_RNvNtNtCsjN0pppA1BUl_14aegis_compiler2ir5testss_51eventually_without_deadline_has_no_violating_states
FNDA:1,_RNvNtNtCsjN0pppA1BUl_14aegis_compiler2ir5testss_52always_second_transition_goes_to_violated_on_negated
FNDA:3,_RNCNvNtNtCsjN0pppA1BUl_14aegis_compiler2ir5testss_46eventually_timeout_transition_goes_from_0_to_20B7_
FNDA:3,_RNCNvNtNtCsjN0pppA1BUl_14aegis_compiler2ir5testss_47eventually_with_deadline_has_timeout_transition0B7_
FNDA:4,_RNvMs_NtCsjN0pppA1BUl_14aegis_compiler2irNtB4_19StateMachineBuilder13compile_never
FNDA:13,_RNvMs_NtCsjN0pppA1BUl_14aegis_compiler2irNtB4_19StateMachineBuilder13compile_until
FNDA:23,_RNvMs_NtCsjN0pppA1BUl_14aegis_compiler2irNtB4_19StateMachineBuilder14compile_always
FNDA:15,_RNvMs_NtCsjN0pppA1BUl_14aegis_compiler2irNtB4_19StateMachineBuilder18compile_eventually
FNDA:46,_RNvMs_NtCsjN0pppA1BUl_14aegis_compiler2irNtB4_19StateMachineBuilder3new
FNDA:51,_RNvMs_NtCsjN0pppA1BUl_14aegis_compiler2irNtB4_19StateMachineBuilder7next_id
FNF:56
FNH:55
DA:308,0
DA:309,0
DA:310,0
DA:314,155
DA:315,155
DA:316,155
DA:322,54
DA:323,54
DA:324,54
DA:325,54
DA:326,54
DA:327,54
DA:328,54
DA:329,54
DA:330,54
DA:331,54
DA:332,54
DA:333,54
DA:334,54
DA:335,54
DA:336,54
DA:337,54
DA:338,54
DA:339,54
DA:340,54
DA:341,54
DA:342,54
DA:343,54
DA:344,54
DA:345,54
DA:346,54
DA:347,54
DA:348,54
DA:349,54
DA:350,54
DA:351,54
DA:352,54
DA:353,54
DA:354,54
DA:355,54
DA:356,54
DA:357,54
DA:358,54
DA:359,54
DA:360,54
DA:361,54
DA:362,54
DA:363,54
DA:364,54
DA:365,54
DA:366,54
DA:371,20
DA:372,20
DA:373,20
DA:374,20
DA:375,20
DA:376,20
DA:377,20
DA:378,20
DA:379,20
DA:381,20
DA:382,20
DA:383,20
DA:384,20
DA:385,20
DA:387,20
DA:388,20
DA:389,20
DA:390,20
DA:391,20
DA:394,20
DA:395,20
DA:396,20
DA:397,20
DA:398,20
DA:399,20
DA:400,20
DA:401,20
DA:402,20
DA:403,20
DA:404,20
DA:408,20
DA:409,9
DA:410,9
DA:411,9
DA:412,9
DA:413,9
DA:414,9
DA:415,9
DA:416,9
DA:417,9
DA:418,9
DA:419,11
DA:422,20
DA:423,20
DA:424,20
DA:425,20
DA:426,20
DA:427,20
DA:429,20
DA:430,20
DA:431,9
DA:433,11
DA:435,20
DA:437,20
DA:440,15
DA:441,15
DA:442,15
DA:443,15
DA:444,15
DA:445,15
DA:446,15
DA:447,15
DA:448,15
DA:449,15
DA:450,15
DA:451,15
DA:457,15
DA:458,15
DA:459,15
DA:460,15
DA:461,15
DA:462,15
DA:463,15
DA:464,15
DA:465,15
DA:466,15
DA:467,15
DA:468,15
DA:469,15
DA:470,15
DA:471,15
DA:472,15
DA:473,15
DA:474,15
DA:475,15
DA:476,15
DA:477,15
DA:478,15
DA:479,15
DA:480,15
DA:481,15
DA:482,15
DA:483,15
DA:484,15
DA:485,15
DA:486,15
DA:487,15
DA:488,15
DA:489,15
DA:490,15
DA:491,15
DA:492,15
DA:493,15
DA:494,15
DA:495,15
DA:496,15
DA:497,15
DA:498,15
DA:499,15
DA:500,15
DA:501,15
DA:502,15
DA:503,15
DA:504,15
DA:505,15
DA:506,15
DA:507,15
DA:508,15
DA:509,15
DA:510,15
DA:511,15
DA:512,15
DA:514,89
DA:515,89
DA:516,89
DA:517,89
DA:518,89
DA:527,48
DA:528,48
DA:529,48
DA:531,13
DA:532,13
DA:533,13
DA:535,96
DA:536,96
DA:537,96
DA:542,1
DA:543,1
DA:544,1
DA:545,1
DA:546,1
DA:549,1
DA:550,1
DA:551,1
DA:552,1
DA:553,1
DA:554,1
DA:557,1
DA:558,1
DA:559,1
DA:560,1
DA:561,1
DA:562,1
DA:565,1
DA:566,1
DA:567,1
DA:568,1
DA:569,1
DA:572,1
DA:573,1
DA:574,1
DA:575,1
DA:576,1
DA:579,1
DA:580,1
DA:581,1
DA:582,1
DA:583,1
DA:586,1
DA:587,1
DA:588,1
DA:589,1
DA:590,1
DA:593,1
DA:594,1
DA:595,1
DA:596,1
DA:597,1
DA:600,1
DA:601,1
DA:602,1
DA:603,1
DA:604,1
DA:605,1
DA:606,1
DA:607,1
DA:610,1
DA:611,1
DA:612,1
DA:613,1
DA:614,1
DA:615,1
DA:616,1
DA:617,1
DA:620,1
DA:621,1
DA:622,1
DA:623,1
DA:624,1
DA:625,1
DA:627,1
DA:628,1
DA:631,1
DA:632,1
DA:633,1
DA:634,1
DA:635,1
DA:638,1
DA:639,1
DA:640,1
DA:641,1
DA:642,1
DA:643,1
DA:645,1
DA:646,1
DA:647,1
DA:652,1
DA:653,1
DA:654,1
DA:655,1
DA:656,1
DA:659,1
DA:660,1
DA:661,1
DA:662,1
DA:663,1
DA:664,1
DA:666,1
DA:667,1
DA:670,1
DA:671,1
DA:672,1
DA:673,1
DA:674,1
DA:675,1
DA:678,1
DA:679,1
DA:680,1
DA:681,1
DA:682,1
DA:685,1
DA:686,1
DA:687,1
DA:688,1
DA:689,1
DA:690,1
DA:692,1
DA:693,1
DA:694,1
DA:697,1
DA:698,1
DA:699,1
DA:700,1
DA:701,1
DA:704,1
DA:705,1
DA:706,1
DA:707,1
DA:708,1
DA:711,1
DA:712,1
DA:713,1
DA:714,1
DA:715,1
DA:716,1
DA:718,1
DA:719,1
DA:722,1
DA:723,1
DA:724,1
DA:725,1
DA:726,1
DA:727,1
DA:729,1
DA:730,1
DA:731,1
DA:732,3
DA:733,1
DA:734,1
DA:737,1
DA:738,1
DA:739,1
DA:740,1
DA:741,1
DA:742,1
DA:744,1
DA:745,1
DA:746,1
DA:747,3
DA:748,1
DA:749,1
DA:750,1
DA:751,1
DA:754,1
DA:755,1
DA:756,1
DA:757,1
DA:758,1
DA:761,1
DA:762,1
DA:763,1
DA:764,1
DA:765,1
DA:768,1
DA:769,1
DA:770,1
DA:771,1
DA:772,1
DA:773,1
DA:775,1
DA:776,1
DA:781,1
DA:782,1
DA:784,1
DA:785,1
DA:786,1
DA:787,1
DA:790,1
DA:791,1
DA:794,1
DA:795,1
DA:796,1
DA:798,0
DA:803,1
DA:806,1
DA:807,1
DA:808,1
DA:809,1
DA:814,1
DA:815,1
DA:816,1
DA:817,1
DA:818,1
DA:819,1
DA:821,1
DA:822,1
DA:825,1
DA:826,1
DA:827,1
DA:828,1
DA:829,1
DA:830,1
DA:832,1
DA:833,1
DA:834,1
DA:837,1
DA:838,1
DA:839,1
DA:840,1
DA:841,1
DA:842,1
DA:844,1
DA:845,1
DA:846,1
DA:849,1
DA:850,1
DA:851,1
DA:852,1
DA:853,1
DA:854,1
DA:856,1
DA:857,1
DA:858,1
DA:861,1
DA:862,1
DA:863,1
DA:864,1
DA:865,1
DA:866,1
DA:868,1
DA:869,1
DA:872,1
DA:873,1
DA:874,1
DA:875,1
DA:876,1
DA:877,1
DA:879,1
DA:880,1
DA:881,1
DA:882,1
DA:883,1
DA:886,1
DA:887,1
DA:888,1
DA:889,1
DA:890,1
DA:891,1
DA:893,1
DA:894,1
DA:895,1
DA:896,1
DA:897,1
DA:900,1
DA:901,1
DA:902,1
DA:903,1
DA:904,1
DA:905,1
DA:907,1
DA:908,1
DA:909,1
DA:910,1
DA:911,1
DA:914,1
DA:915,1
DA:916,1
DA:917,1
DA:918,1
DA:919,1
DA:921,1
DA:922,1
DA:925,1
DA:926,1
DA:927,1
DA:928,1
DA:929,1
DA:930,1
DA:932,1
DA:933,1
DA:936,1
DA:937,1
DA:938,1
DA:939,1
DA:940,1
DA:941,1
DA:943,1
DA:944,1
DA:947,1
DA:948,1
DA:949,1
DA:950,1
DA:951,1
DA:952,1
DA:954,1
DA:955,1
DA:960,1
DA:961,1
DA:962,1
DA:963,1
DA:964,1
DA:965,1
DA:966,1
DA:969,1
DA:970,1
DA:971,1
DA:972,1
DA:973,1
DA:974,1
DA:975,1
DA:976,1
DA:977,1
DA:978,1
DA:981,1
DA:982,1
DA:983,1
DA:984,1
DA:985,1
BRF:0
BRH:0
LF:511
LH:507
end_of_record
SF:/home/scott/Projects/AgentProof/aegis-compiler/src/lower.rs
FN:319,_RNCNCNvMs0_NtCs6BFVBPdMni0_14aegis_compiler5lowerNtB9_8Lowering10lower_rules0_00Bb_
FN:669,_RNCNvMs0_NtCs6BFVBPdMni0_14aegis_compiler5lowerNtB7_8Lowering10lower_expr0B9_
FN:745,_RNCNvMs0_NtCs6BFVBPdMni0_14aegis_compiler5lowerNtB7_8Lowering10lower_exprs0_0B9_
FN:800,_RNCNvMs0_NtCs6BFVBPdMni0_14aegis_compiler5lowerNtB7_8Lowering10lower_exprs1_0B9_
FN:801,_RNCNvMs0_NtCs6BFVBPdMni0_14aegis_compiler5lowerNtB7_8Lowering10lower_exprs2_0B9_
FN:822,_RNCNvMs0_NtCs6BFVBPdMni0_14aegis_compiler5lowerNtB7_8Lowering10lower_exprs3_0B9_
FN:823,_RNCNvMs0_NtCs6BFVBPdMni0_14aegis_compiler5lowerNtB7_8Lowering10lower_exprs4_0B9_
FN:860,_RNCNvMs0_NtCs6BFVBPdMni0_14aegis_compiler5lowerNtB7_8Lowering10lower_exprs5_0B9_
FN:706,_RNCNvMs0_NtCs6BFVBPdMni0_14aegis_compiler5lowerNtB7_8Lowering10lower_exprs_0B9_
FN:300,_RNCNvMs0_NtCs6BFVBPdMni0_14aegis_compiler5lowerNtB7_8Lowering10lower_rule0B9_
FN:313,_RNCNvMs0_NtCs6BFVBPdMni0_14aegis_compiler5lowerNtB7_8Lowering10lower_rules0_0B9_
FN:329,_RNCNvMs0_NtCs6BFVBPdMni0_14aegis_compiler5lowerNtB7_8Lowering10lower_rules1_0B9_
FN:336,_RNCNvMs0_NtCs6BFVBPdMni0_14aegis_compiler5lowerNtB7_8Lowering10lower_rules2_0B9_
FN:304,_RNCNvMs0_NtCs6BFVBPdMni0_14aegis_compiler5lowerNtB7_8Lowering10lower_rules_0B9_
FN:359,_RNCNvMs0_NtCs6BFVBPdMni0_14aegis_compiler5lowerNtB7_8Lowering12lower_action0B9_
FN:252,_RNCNvMs0_NtCs6BFVBPdMni0_14aegis_compiler5lowerNtB7_8Lowering12lower_policy0B9_
FN:900,_RNCNvMs0_NtCs6BFVBPdMni0_14aegis_compiler5lowerNtB7_8Lowering12resolve_name0B9_
FN:914,_RNCNvMs0_NtCs6BFVBPdMni0_14aegis_compiler5lowerNtB7_8Lowering12resolve_names0_0B9_
FN:925,_RNCNvMs0_NtCs6BFVBPdMni0_14aegis_compiler5lowerNtB7_8Lowering12resolve_names1_0B9_
FN:952,_RNCNvMs0_NtCs6BFVBPdMni0_14aegis_compiler5lowerNtB7_8Lowering12resolve_names2_0B9_
FN:907,_RNCNvMs0_NtCs6BFVBPdMni0_14aegis_compiler5lowerNtB7_8Lowering12resolve_names_0B9_
FN:152,_RNCNvMs0_NtCs6BFVBPdMni0_14aegis_compiler5lowerNtB7_8Lowering13lower_program0B9_
FN:162,_RNCNvMs0_NtCs6BFVBPdMni0_14aegis_compiler5lowerNtB7_8Lowering13lower_programs_0B9_
FN:1045,_RNCNvMs0_NtCs6BFVBPdMni0_14aegis_compiler5lowerNtB7_8Lowering18lower_match_result0B9_
FN:1066,_RNCNvMs0_NtCs6BFVBPdMni0_14aegis_compiler5lowerNtB7_8Lowering18lower_match_results_0B9_
FN:432,_RNCNvMs0_NtCs6BFVBPdMni0_14aegis_compiler5lowerNtB7_8Lowering20lower_temporal_to_sm0B9_
FN:445,_RNCNvMs0_NtCs6BFVBPdMni0_14aegis_compiler5lowerNtB7_8Lowering20lower_temporal_to_sms_0B9_
FN:21,_RNvMNtCs6BFVBPdMni0_14aegis_compiler5lowerNtB2_10LocalScope3new
FN:32,_RNvMNtCs6BFVBPdMni0_14aegis_compiler5lowerNtB2_10LocalScope3pop
FN:36,_RNvMNtCs6BFVBPdMni0_14aegis_compiler5lowerNtB2_10LocalScope4bind
FN:28,_RNvMNtCs6BFVBPdMni0_14aegis_compiler5lowerNtB2_10LocalScope4push
FN:45,_RNvMNtCs6BFVBPdMni0_14aegis_compiler5lowerNtB2_10LocalScope6lookup
FN:662,_RNvMs0_NtCs6BFVBPdMni0_14aegis_compiler5lowerNtB5_8Lowering10lower_expr
FN:293,_RNvMs0_NtCs6BFVBPdMni0_14aegis_compiler5lowerNtB5_8Lowering10lower_rule
FN:125,_RNvMs0_NtCs6BFVBPdMni0_14aegis_compiler5lowerNtB5_8Lowering11diagnostics
FN:399,_RNvMs0_NtCs6BFVBPdMni0_14aegis_compiler5lowerNtB5_8Lowering11lower_proof
FN:351,_RNvMs0_NtCs6BFVBPdMni0_14aegis_compiler5lowerNtB5_8Lowering12lower_action
FN:184,_RNvMs0_NtCs6BFVBPdMni0_14aegis_compiler5lowerNtB5_8Lowering12lower_policy
FN:888,_RNvMs0_NtCs6BFVBPdMni0_14aegis_compiler5lowerNtB5_8Lowering12resolve_name
FN:140,_RNvMs0_NtCs6BFVBPdMni0_14aegis_compiler5lowerNtB5_8Lowering13lower_program
FN:1105,_RNvMs0_NtCs6BFVBPdMni0_14aegis_compiler5lowerNtB5_8Lowering14eval_const_int
FN:129,_RNvMs0_NtCs6BFVBPdMni0_14aegis_compiler5lowerNtB5_8Lowering16into_diagnostics
FN:373,_RNvMs0_NtCs6BFVBPdMni0_14aegis_compiler5lowerNtB5_8Lowering16lower_constraint
FN:1037,_RNvMs0_NtCs6BFVBPdMni0_14aegis_compiler5lowerNtB5_8Lowering18lower_match_result
FN:420,_RNvMs0_NtCs6BFVBPdMni0_14aegis_compiler5lowerNtB5_8Lowering20lower_temporal_to_sm
FN:1086,_RNvMs0_NtCs6BFVBPdMni0_14aegis_compiler5lowerNtB5_8Lowering21lower_block_statement
FN:1123,_RNvMs0_NtCs6BFVBPdMni0_14aegis_compiler5lowerNtB5_8Lowering22scope_target_to_string
FN:1112,_RNvMs0_NtCs6BFVBPdMni0_14aegis_compiler5lowerNtB5_8Lowering26eval_const_duration_millis
FN:963,_RNvMs0_NtCs6BFVBPdMni0_14aegis_compiler5lowerNtB5_8Lowering28lower_match_to_decision_tree
FN:115,_RNvMs0_NtCs6BFVBPdMni0_14aegis_compiler5lowerNtB5_8Lowering3new
FN:65,_RNvNtCs6BFVBPdMni0_14aegis_compiler5lower25collect_inherited_members
FN:1144,_RNvNtCs6BFVBPdMni0_14aegis_compiler5lower7compile
FN:109,_RNvXs_NtCs6BFVBPdMni0_14aegis_compiler5lowerNtB4_8LoweringNtNtCsbNKrcpplAYV_4core7default7Default7default
FN:319,_RNCNCNvMs0_NtCsjN0pppA1BUl_14aegis_compiler5lowerNtB9_8Lowering10lower_rules0_00Bb_
FN:669,_RNCNvMs0_NtCsjN0pppA1BUl_14aegis_compiler5lowerNtB7_8Lowering10lower_expr0B9_
FN:745,_RNCNvMs0_NtCsjN0pppA1BUl_14aegis_compiler5lowerNtB7_8Lowering10lower_exprs0_0B9_
FN:800,_RNCNvMs0_NtCsjN0pppA1BUl_14aegis_compiler5lowerNtB7_8Lowering10lower_exprs1_0B9_
FN:801,_RNCNvMs0_NtCsjN0pppA1BUl_14aegis_compiler5lowerNtB7_8Lowering10lower_exprs2_0B9_
FN:822,_RNCNvMs0_NtCsjN0pppA1BUl_14aegis_compiler5lowerNtB7_8Lowering10lower_exprs3_0B9_
FN:823,_RNCNvMs0_NtCsjN0pppA1BUl_14aegis_compiler5lowerNtB7_8Lowering10lower_exprs4_0B9_
FN:860,_RNCNvMs0_NtCsjN0pppA1BUl_14aegis_compiler5lowerNtB7_8Lowering10lower_exprs5_0B9_
FN:706,_RNCNvMs0_NtCsjN0pppA1BUl_14aegis_compiler5lowerNtB7_8Lowering10lower_exprs_0B9_
FN:300,_RNCNvMs0_NtCsjN0pppA1BUl_14aegis_compiler5lowerNtB7_8Lowering10lower_rule0B9_
FN:313,_RNCNvMs0_NtCsjN0pppA1BUl_14aegis_compiler5lowerNtB7_8Lowering10lower_rules0_0B9_
FN:329,_RNCNvMs0_NtCsjN0pppA1BUl_14aegis_compiler5lowerNtB7_8Lowering10lower_rules1_0B9_
FN:336,_RNCNvMs0_NtCsjN0pppA1BUl_14aegis_compiler5lowerNtB7_8Lowering10lower_rules2_0B9_
FN:304,_RNCNvMs0_NtCsjN0pppA1BUl_14aegis_compiler5lowerNtB7_8Lowering10lower_rules_0B9_
FN:359,_RNCNvMs0_NtCsjN0pppA1BUl_14aegis_compiler5lowerNtB7_8Lowering12lower_action0B9_
FN:252,_RNCNvMs0_NtCsjN0pppA1BUl_14aegis_compiler5lowerNtB7_8Lowering12lower_policy0B9_
FN:900,_RNCNvMs0_NtCsjN0pppA1BUl_14aegis_compiler5lowerNtB7_8Lowering12resolve_name0B9_
FN:914,_RNCNvMs0_NtCsjN0pppA1BUl_14aegis_compiler5lowerNtB7_8Lowering12resolve_names0_0B9_
FN:925,_RNCNvMs0_NtCsjN0pppA1BUl_14aegis_compiler5lowerNtB7_8Lowering12resolve_names1_0B9_
FN:952,_RNCNvMs0_NtCsjN0pppA1BUl_14aegis_compiler5lowerNtB7_8Lowering12resolve_names2_0B9_
FN:907,_RNCNvMs0_NtCsjN0pppA1BUl_14aegis_compiler5lowerNtB7_8Lowering12resolve_names_0B9_
FN:152,_RNCNvMs0_NtCsjN0pppA1BUl_14aegis_compiler5lowerNtB7_8Lowering13lower_program0B9_
FN:162,_RNCNvMs0_NtCsjN0pppA1BUl_14aegis_compiler5lowerNtB7_8Lowering13lower_programs_0B9_
FN:1045,_RNCNvMs0_NtCsjN0pppA1BUl_14aegis_compiler5lowerNtB7_8Lowering18lower_match_result0B9_
FN:1066,_RNCNvMs0_NtCsjN0pppA1BUl_14aegis_compiler5lowerNtB7_8Lowering18lower_match_results_0B9_
FN:432,_RNCNvMs0_NtCsjN0pppA1BUl_14aegis_compiler5lowerNtB7_8Lowering20lower_temporal_to_sm0B9_
FN:445,_RNCNvMs0_NtCsjN0pppA1BUl_14aegis_compiler5lowerNtB7_8Lowering20lower_temporal_to_sms_0B9_
FN:21,_RNvMNtCsjN0pppA1BUl_14aegis_compiler5lowerNtB2_10LocalScope3new
FN:32,_RNvMNtCsjN0pppA1BUl_14aegis_compiler5lowerNtB2_10LocalScope3pop
FN:36,_RNvMNtCsjN0pppA1BUl_14aegis_compiler5lowerNtB2_10LocalScope4bind
FN:28,_RNvMNtCsjN0pppA1BUl_14aegis_compiler5lowerNtB2_10LocalScope4push
FN:45,_RNvMNtCsjN0pppA1BUl_14aegis_compiler5lowerNtB2_10LocalScope6lookup
FN:662,_RNvMs0_NtCsjN0pppA1BUl_14aegis_compiler5lowerNtB5_8Lowering10lower_expr
FN:293,_RNvMs0_NtCsjN0pppA1BUl_14aegis_compiler5lowerNtB5_8Lowering10lower_rule
FN:125,_RNvMs0_NtCsjN0pppA1BUl_14aegis_compiler5lowerNtB5_8Lowering11diagnostics
FN:399,_RNvMs0_NtCsjN0pppA1BUl_14aegis_compiler5lowerNtB5_8Lowering11lower_proof
FN:351,_RNvMs0_NtCsjN0pppA1BUl_14aegis_compiler5lowerNtB5_8Lowering12lower_action
FN:184,_RNvMs0_NtCsjN0pppA1BUl_14aegis_compiler5lowerNtB5_8Lowering12lower_policy
FN:888,_RNvMs0_NtCsjN0pppA1BUl_14aegis_compiler5lowerNtB5_8Lowering12resolve_name
FN:140,_RNvMs0_NtCsjN0pppA1BUl_14aegis_compiler5lowerNtB5_8Lowering13lower_program
FN:1105,_RNvMs0_NtCsjN0pppA1BUl_14aegis_compiler5lowerNtB5_8Lowering14eval_const_int
FN:129,_RNvMs0_NtCsjN0pppA1BUl_14aegis_compiler5lowerNtB5_8Lowering16into_diagnostics
FN:373,_RNvMs0_NtCsjN0pppA1BUl_14aegis_compiler5lowerNtB5_8Lowering16lower_constraint
FN:1037,_RNvMs0_NtCsjN0pppA1BUl_14aegis_compiler5lowerNtB5_8Lowering18lower_match_result
FN:420,_RNvMs0_NtCsjN0pppA1BUl_14aegis_compiler5lowerNtB5_8Lowering20lower_temporal_to_sm
FN:1086,_RNvMs0_NtCsjN0pppA1BUl_14aegis_compiler5lowerNtB5_8Lowering21lower_block_statement
FN:1123,_RNvMs0_NtCsjN0pppA1BUl_14aegis_compiler5lowerNtB5_8Lowering22scope_target_to_string
FN:1112,_RNvMs0_NtCsjN0pppA1BUl_14aegis_compiler5lowerNtB5_8Lowering26eval_const_duration_millis
FN:963,_RNvMs0_NtCsjN0pppA1BUl_14aegis_compiler5lowerNtB5_8Lowering28lower_match_to_decision_tree
FN:115,_RNvMs0_NtCsjN0pppA1BUl_14aegis_compiler5lowerNtB5_8Lowering3new
FN:65,_RNvNtCsjN0pppA1BUl_14aegis_compiler5lower25collect_inherited_members
FN:1144,_RNvNtCsjN0pppA1BUl_14aegis_compiler5lower7compile
FN:109,_RNvXs_NtCsjN0pppA1BUl_14aegis_compiler5lowerNtB4_8LoweringNtNtCsbNKrcpplAYV_4core7default7Default7default
FNDA:16,_RNCNCNvMs0_NtCs6BFVBPdMni0_14aegis_compiler5lowerNtB9_8Lowering10lower_rules0_00Bb_
FNDA:8,_RNCNvMs0_NtCs6BFVBPdMni0_14aegis_compiler5lowerNtB7_8Lowering10lower_expr0B9_
FNDA:0,_RNCNvMs0_NtCs6BFVBPdMni0_14aegis_compiler5lowerNtB7_8Lowering10lower_exprs0_0B9_
FNDA:1,_RNCNvMs0_NtCs6BFVBPdMni0_14aegis_compiler5lowerNtB7_8Lowering10lower_exprs1_0B9_
FNDA:0,_RNCNvMs0_NtCs6BFVBPdMni0_14aegis_compiler5lowerNtB7_8Lowering10lower_exprs2_0B9_
FNDA:1,_RNCNvMs0_NtCs6BFVBPdMni0_14aegis_compiler5lowerNtB7_8Lowering10lower_exprs3_0B9_
FNDA:0,_RNCNvMs0_NtCs6BFVBPdMni0_14aegis_compiler5lowerNtB7_8Lowering10lower_exprs4_0B9_
FNDA:3,_RNCNvMs0_NtCs6BFVBPdMni0_14aegis_compiler5lowerNtB7_8Lowering10lower_exprs5_0B9_
FNDA:1,_RNCNvMs0_NtCs6BFVBPdMni0_14aegis_compiler5lowerNtB7_8Lowering10lower_exprs_0B9_
FNDA:81,_RNCNvMs0_NtCs6BFVBPdMni0_14aegis_compiler5lowerNtB7_8Lowering10lower_rule0B9_
FNDA:121,_RNCNvMs0_NtCs6BFVBPdMni0_14aegis_compiler5lowerNtB7_8Lowering10lower_rules0_0B9_
FNDA:121,_RNCNvMs0_NtCs6BFVBPdMni0_14aegis_compiler5lowerNtB7_8Lowering10lower_rules1_0B9_
FNDA:121,_RNCNvMs0_NtCs6BFVBPdMni0_14aegis_compiler5lowerNtB7_8Lowering10lower_rules2_0B9_
FNDA:80,_RNCNvMs0_NtCs6BFVBPdMni0_14aegis_compiler5lowerNtB7_8Lowering10lower_rules_0B9_
FNDA:0,_RNCNvMs0_NtCs6BFVBPdMni0_14aegis_compiler5lowerNtB7_8Lowering12lower_action0B9_
FNDA:2,_RNCNvMs0_NtCs6BFVBPdMni0_14aegis_compiler5lowerNtB7_8Lowering12lower_policy0B9_
FNDA:2,_RNCNvMs0_NtCs6BFVBPdMni0_14aegis_compiler5lowerNtB7_8Lowering12resolve_name0B9_
FNDA:1,_RNCNvMs0_NtCs6BFVBPdMni0_14aegis_compiler5lowerNtB7_8Lowering12resolve_names0_0B9_
FNDA:0,_RNCNvMs0_NtCs6BFVBPdMni0_14aegis_compiler5lowerNtB7_8Lowering12resolve_names1_0B9_
FNDA:3,_RNCNvMs0_NtCs6BFVBPdMni0_14aegis_compiler5lowerNtB7_8Lowering12resolve_names2_0B9_
FNDA:1,_RNCNvMs0_NtCs6BFVBPdMni0_14aegis_compiler5lowerNtB7_8Lowering12resolve_names_0B9_
FNDA:133,_RNCNvMs0_NtCs6BFVBPdMni0_14aegis_compiler5lowerNtB7_8Lowering13lower_program0B9_
FNDA:133,_RNCNvMs0_NtCs6BFVBPdMni0_14aegis_compiler5lowerNtB7_8Lowering13lower_programs_0B9_
FNDA:0,_RNCNvMs0_NtCs6BFVBPdMni0_14aegis_compiler5lowerNtB7_8Lowering18lower_match_result0B9_
FNDA:0,_RNCNvMs0_NtCs6BFVBPdMni0_14aegis_compiler5lowerNtB7_8Lowering18lower_match_results_0B9_
FNDA:1,_RNCNvMs0_NtCs6BFVBPdMni0_14aegis_compiler5lowerNtB7_8Lowering20lower_temporal_to_sm0B9_
FNDA:2,_RNCNvMs0_NtCs6BFVBPdMni0_14aegis_compiler5lowerNtB7_8Lowering20lower_temporal_to_sms_0B9_
FNDA:109,_RNvMNtCs6BFVBPdMni0_14aegis_compiler5lowerNtB2_10LocalScope3new
FNDA:135,_RNvMNtCs6BFVBPdMni0_14aegis_compiler5lowerNtB2_10LocalScope3pop
FNDA:3,_RNvMNtCs6BFVBPdMni0_14aegis_compiler5lowerNtB2_10LocalScope4bind
FNDA:135,_RNvMNtCs6BFVBPdMni0_14aegis_compiler5lowerNtB2_10LocalScope4push
FNDA:2,_RNvMNtCs6BFVBPdMni0_14aegis_compiler5lowerNtB2_10LocalScope6lookup
FNDA:134,_RNvMs0_NtCs6BFVBPdMni0_14aegis_compiler5lowerNtB5_8Lowering10lower_expr
FNDA:80,_RNvMs0_NtCs6BFVBPdMni0_14aegis_compiler5lowerNtB5_8Lowering10lower_rule
FNDA:0,_RNvMs0_NtCs6BFVBPdMni0_14aegis_compiler5lowerNtB5_8Lowering11diagnostics
FNDA:35,_RNvMs0_NtCs6BFVBPdMni0_14aegis_compiler5lowerNtB5_8Lowering11lower_proof
FNDA:0,_RNvMs0_NtCs6BFVBPdMni0_14aegis_compiler5lowerNtB5_8Lowering12lower_action
FNDA:132,_RNvMs0_NtCs6BFVBPdMni0_14aegis_compiler5lowerNtB5_8Lowering12lower_policy
FNDA:6,_RNvMs0_NtCs6BFVBPdMni0_14aegis_compiler5lowerNtB5_8Lowering12resolve_name
FNDA:109,_RNvMs0_NtCs6BFVBPdMni0_14aegis_compiler5lowerNtB5_8Lowering13lower_program
FNDA:16,_RNvMs0_NtCs6BFVBPdMni0_14aegis_compiler5lowerNtB5_8Lowering14eval_const_int
FNDA:109,_RNvMs0_NtCs6BFVBPdMni0_14aegis_compiler5lowerNtB5_8Lowering16into_diagnostics
FNDA:16,_RNvMs0_NtCs6BFVBPdMni0_14aegis_compiler5lowerNtB5_8Lowering16lower_constraint
FNDA:5,_RNvMs0_NtCs6BFVBPdMni0_14aegis_compiler5lowerNtB5_8Lowering18lower_match_result
FNDA:44,_RNvMs0_NtCs6BFVBPdMni0_14aegis_compiler5lowerNtB5_8Lowering20lower_temporal_to_sm
FNDA:0,_RNvMs0_NtCs6BFVBPdMni0_14aegis_compiler5lowerNtB5_8Lowering21lower_block_statement
FNDA:99,_RNvMs0_NtCs6BFVBPdMni0_14aegis_compiler5lowerNtB5_8Lowering22scope_target_to_string
FNDA:19,_RNvMs0_NtCs6BFVBPdMni0_14aegis_compiler5lowerNtB5_8Lowering26eval_const_duration_millis
FNDA:5,_RNvMs0_NtCs6BFVBPdMni0_14aegis_compiler5lowerNtB5_8Lowering28lower_match_to_decision_tree
FNDA:109,_RNvMs0_NtCs6BFVBPdMni0_14aegis_compiler5lowerNtB5_8Lowering3new
FNDA:170,_RNvNtCs6BFVBPdMni0_14aegis_compiler5lower25collect_inherited_members
FNDA:109,_RNvNtCs6BFVBPdMni0_14aegis_compiler5lower7compile
FNDA:0,_RNvXs_NtCs6BFVBPdMni0_14aegis_compiler5lowerNtB4_8LoweringNtNtCsbNKrcpplAYV_4core7default7Default7default
FNDA:0,_RNCNCNvMs0_NtCsjN0pppA1BUl_14aegis_compiler5lowerNtB9_8Lowering10lower_rules0_00Bb_
FNDA:0,_RNCNvMs0_NtCsjN0pppA1BUl_14aegis_compiler5lowerNtB7_8Lowering10lower_expr0B9_
FNDA:0,_RNCNvMs0_NtCsjN0pppA1BUl_14aegis_compiler5lowerNtB7_8Lowering10lower_exprs0_0B9_
FNDA:0,_RNCNvMs0_NtCsjN0pppA1BUl_14aegis_compiler5lowerNtB7_8Lowering10lower_exprs1_0B9_
FNDA:0,_RNCNvMs0_NtCsjN0pppA1BUl_14aegis_compiler5lowerNtB7_8Lowering10lower_exprs2_0B9_
FNDA:0,_RNCNvMs0_NtCsjN0pppA1BUl_14aegis_compiler5lowerNtB7_8Lowering10lower_exprs3_0B9_
FNDA:0,_RNCNvMs0_NtCsjN0pppA1BUl_14aegis_compiler5lowerNtB7_8Lowering10lower_exprs4_0B9_
FNDA:0,_RNCNvMs0_NtCsjN0pppA1BUl_14aegis_compiler5lowerNtB7_8Lowering10lower_exprs5_0B9_
FNDA:0,_RNCNvMs0_NtCsjN0pppA1BUl_14aegis_compiler5lowerNtB7_8Lowering10lower_exprs_0B9_
FNDA:0,_RNCNvMs0_NtCsjN0pppA1BUl_14aegis_compiler5lowerNtB7_8Lowering10lower_rule0B9_
FNDA:0,_RNCNvMs0_NtCsjN0pppA1BUl_14aegis_compiler5lowerNtB7_8Lowering10lower_rules0_0B9_
FNDA:0,_RNCNvMs0_NtCsjN0pppA1BUl_14aegis_compiler5lowerNtB7_8Lowering10lower_rules1_0B9_
FNDA:0,_RNCNvMs0_NtCsjN0pppA1BUl_14aegis_compiler5lowerNtB7_8Lowering10lower_rules2_0B9_
FNDA:0,_RNCNvMs0_NtCsjN0pppA1BUl_14aegis_compiler5lowerNtB7_8Lowering10lower_rules_0B9_
FNDA:0,_RNCNvMs0_NtCsjN0pppA1BUl_14aegis_compiler5lowerNtB7_8Lowering12lower_action0B9_
FNDA:0,_RNCNvMs0_NtCsjN0pppA1BUl_14aegis_compiler5lowerNtB7_8Lowering12lower_policy0B9_
FNDA:0,_RNCNvMs0_NtCsjN0pppA1BUl_14aegis_compiler5lowerNtB7_8Lowering12resolve_name0B9_
FNDA:0,_RNCNvMs0_NtCsjN0pppA1BUl_14aegis_compiler5lowerNtB7_8Lowering12resolve_names0_0B9_
FNDA:0,_RNCNvMs0_NtCsjN0pppA1BUl_14aegis_compiler5lowerNtB7_8Lowering12resolve_names1_0B9_
FNDA:0,_RNCNvMs0_NtCsjN0pppA1BUl_14aegis_compiler5lowerNtB7_8Lowering12resolve_names2_0B9_
FNDA:0,_RNCNvMs0_NtCsjN0pppA1BUl_14aegis_compiler5lowerNtB7_8Lowering12resolve_names_0B9_
FNDA:0,_RNCNvMs0_NtCsjN0pppA1BUl_14aegis_compiler5lowerNtB7_8Lowering13lower_program0B9_
FNDA:0,_RNCNvMs0_NtCsjN0pppA1BUl_14aegis_compiler5lowerNtB7_8Lowering13lower_programs_0B9_
FNDA:0,_RNCNvMs0_NtCsjN0pppA1BUl_14aegis_compiler5lowerNtB7_8Lowering18lower_match_result0B9_
FNDA:0,_RNCNvMs0_NtCsjN0pppA1BUl_14aegis_compiler5lowerNtB7_8Lowering18lower_match_results_0B9_
FNDA:0,_RNCNvMs0_NtCsjN0pppA1BUl_14aegis_compiler5lowerNtB7_8Lowering20lower_temporal_to_sm0B9_
FNDA:0,_RNCNvMs0_NtCsjN0pppA1BUl_14aegis_compiler5lowerNtB7_8Lowering20lower_temporal_to_sms_0B9_
FNDA:0,_RNvMNtCsjN0pppA1BUl_14aegis_compiler5lowerNtB2_10LocalScope3new
FNDA:0,_RNvMNtCsjN0pppA1BUl_14aegis_compiler5lowerNtB2_10LocalScope3pop
FNDA:0,_RNvMNtCsjN0pppA1BUl_14aegis_compiler5lowerNtB2_10LocalScope4bind
FNDA:0,_RNvMNtCsjN0pppA1BUl_14aegis_compiler5lowerNtB2_10LocalScope4push
FNDA:0,_RNvMNtCsjN0pppA1BUl_14aegis_compiler5lowerNtB2_10LocalScope6lookup
FNDA:0,_RNvMs0_NtCsjN0pppA1BUl_14aegis_compiler5lowerNtB5_8Lowering10lower_expr
FNDA:0,_RNvMs0_NtCsjN0pppA1BUl_14aegis_compiler5lowerNtB5_8Lowering10lower_rule
FNDA:0,_RNvMs0_NtCsjN0pppA1BUl_14aegis_compiler5lowerNtB5_8Lowering11diagnostics
FNDA:0,_RNvMs0_NtCsjN0pppA1BUl_14aegis_compiler5lowerNtB5_8Lowering11lower_proof
FNDA:0,_RNvMs0_NtCsjN0pppA1BUl_14aegis_compiler5lowerNtB5_8Lowering12lower_action
FNDA:0,_RNvMs0_NtCsjN0pppA1BUl_14aegis_compiler5lowerNtB5_8Lowering12lower_policy
FNDA:0,_RNvMs0_NtCsjN0pppA1BUl_14aegis_compiler5lowerNtB5_8Lowering12resolve_name
FNDA:0,_RNvMs0_NtCsjN0pppA1BUl_14aegis_compiler5lowerNtB5_8Lowering13lower_program
FNDA:0,_RNvMs0_NtCsjN0pppA1BUl_14aegis_compiler5lowerNtB5_8Lowering14eval_const_int
FNDA:0,_RNvMs0_NtCsjN0pppA1BUl_14aegis_compiler5lowerNtB5_8Lowering16into_diagnostics
FNDA:0,_RNvMs0_NtCsjN0pppA1BUl_14aegis_compiler5lowerNtB5_8Lowering16lower_constraint
FNDA:0,_RNvMs0_NtCsjN0pppA1BUl_14aegis_compiler5lowerNtB5_8Lowering18lower_match_result
FNDA:0,_RNvMs0_NtCsjN0pppA1BUl_14aegis_compiler5lowerNtB5_8Lowering20lower_temporal_to_sm
FNDA:0,_RNvMs0_NtCsjN0pppA1BUl_14aegis_compiler5lowerNtB5_8Lowering21lower_block_statement
FNDA:0,_RNvMs0_NtCsjN0pppA1BUl_14aegis_compiler5lowerNtB5_8Lowering22scope_target_to_string
FNDA:0,_RNvMs0_NtCsjN0pppA1BUl_14aegis_compiler5lowerNtB5_8Lowering26eval_const_duration_millis
FNDA:0,_RNvMs0_NtCsjN0pppA1BUl_14aegis_compiler5lowerNtB5_8Lowering28lower_match_to_decision_tree
FNDA:0,_RNvMs0_NtCsjN0pppA1BUl_14aegis_compiler5lowerNtB5_8Lowering3new
FNDA:0,_RNvNtCsjN0pppA1BUl_14aegis_compiler5lower25collect_inherited_members
FNDA:0,_RNvNtCsjN0pppA1BUl_14aegis_compiler5lower7compile
FNDA:0,_RNvXs_NtCsjN0pppA1BUl_14aegis_compiler5lowerNtB4_8LoweringNtNtCsbNKrcpplAYV_4core7default7Default7default
FNF:53
FNH:42
DA:21,109
DA:22,109
DA:23,109
DA:24,109
DA:25,109
DA:26,109
DA:28,135
DA:29,135
DA:30,135
DA:32,135
DA:33,135
DA:34,135
DA:36,3
DA:37,3
DA:38,3
DA:39,3
DA:40,3
DA:41,3
DA:42,3
DA:43,3
DA:45,2
DA:46,4
DA:47,4
DA:48,0
DA:49,4
DA:51,2
DA:52,2
DA:65,170
DA:66,170
DA:67,170
DA:68,170
DA:69,170
DA:70,170
DA:71,170
DA:72,2
DA:73,168
DA:74,168
DA:76,168
DA:78,168
DA:79,38
DA:80,38
DA:81,38
DA:82,38
DA:83,38
DA:84,130
DA:86,168
DA:87,168
DA:88,170
DA:109,0
DA:110,0
DA:111,0
DA:115,109
DA:116,109
DA:117,109
DA:118,109
DA:119,109
DA:120,109
DA:121,109
DA:122,109
DA:123,109
DA:125,0
DA:126,0
DA:127,0
DA:129,109
DA:130,109
DA:131,109
DA:140,109
DA:142,133
DA:143,133
DA:144,0
DA:145,133
DA:149,109
DA:150,109
DA:151,109
DA:152,133
DA:153,0
DA:154,133
DA:155,133
DA:156,109
DA:159,109
DA:160,109
DA:161,109
DA:162,133
DA:163,132
DA:164,1
DA:165,133
DA:166,109
DA:169,109
DA:170,133
DA:171,133
DA:172,132
DA:173,132
DA:174,132
DA:177,109
DA:178,109
DA:184,132
DA:185,132
DA:186,132
DA:187,132
DA:188,132
DA:189,132
DA:190,132
DA:191,132
DA:192,132
DA:193,132
DA:194,132
DA:196,132
DA:200,132
DA:201,132
DA:203,168
DA:204,168
DA:205,28
DA:207,9
DA:208,18
DA:209,18
DA:210,18
DA:213,80
DA:214,80
DA:215,80
DA:217,35
DA:218,35
DA:219,35
DA:220,35
DA:222,16
DA:223,16
DA:224,15
DA:225,15
DA:228,0
DA:229,0
DA:230,0
DA:231,0
DA:232,0
DA:234,0
DA:235,0
DA:236,0
DA:241,132
DA:242,0
DA:243,0
DA:244,0
DA:246,132
DA:249,132
DA:250,132
DA:251,132
DA:252,132
DA:253,2
DA:254,2
DA:255,2
DA:257,2
DA:258,0
DA:259,0
DA:260,0
DA:261,2
DA:262,132
DA:265,132
DA:266,132
DA:267,503
DA:268,503
DA:269,503
DA:270,503
DA:271,132
DA:274,132
DA:275,132
DA:276,132
DA:277,132
DA:278,132
DA:279,132
DA:280,132
DA:281,132
DA:282,132
DA:283,132
DA:284,132
DA:285,132
DA:286,132
DA:287,132
DA:293,80
DA:294,80
DA:295,80
DA:297,80
DA:298,80
DA:299,80
DA:300,81
DA:301,80
DA:304,80
DA:305,41
DA:306,39
DA:307,80
DA:310,80
DA:311,80
DA:312,80
DA:313,121
DA:314,80
DA:315,80
DA:316,80
DA:317,80
DA:318,80
DA:319,80
DA:321,41
DA:322,121
DA:323,80
DA:326,80
DA:327,80
DA:328,80
DA:329,121
DA:330,0
DA:331,121
DA:332,121
DA:333,80
DA:336,121
DA:337,0
DA:338,121
DA:339,121
DA:341,80
DA:342,80
DA:343,80
DA:344,80
DA:345,80
DA:346,80
DA:347,80
DA:348,80
DA:349,80
DA:351,0
DA:352,0
DA:353,0
DA:354,0
DA:355,0
DA:357,0
DA:358,0
DA:359,0
DA:360,0
DA:363,0
DA:364,0
DA:365,0
DA:366,0
DA:367,0
DA:373,16
DA:374,16
DA:375,16
DA:377,16
DA:378,15
DA:379,15
DA:380,15
DA:381,15
DA:382,15
DA:383,15
DA:385,1
DA:386,1
DA:387,1
DA:390,1
DA:393,16
DA:399,35
DA:400,35
DA:402,44
DA:403,44
DA:404,44
DA:405,44
DA:406,44
DA:407,44
DA:408,44
DA:409,43
DA:410,43
DA:414,35
DA:415,35
DA:420,44
DA:421,44
DA:422,44
DA:423,44
DA:424,44
DA:425,44
DA:426,44
DA:427,43
DA:428,20
DA:429,20
DA:430,20
DA:431,20
DA:432,20
DA:433,20
DA:434,20
DA:435,20
DA:436,20
DA:437,20
DA:438,20
DA:441,5
DA:442,5
DA:443,5
DA:444,5
DA:445,5
DA:446,5
DA:447,5
DA:448,5
DA:449,5
DA:450,5
DA:451,5
DA:454,11
DA:455,11
DA:456,11
DA:457,11
DA:458,11
DA:459,11
DA:462,2
DA:463,2
DA:464,2
DA:465,2
DA:466,2
DA:467,2
DA:468,2
DA:469,2
DA:470,2
DA:473,2
DA:478,2
DA:479,2
DA:480,2
DA:481,2
DA:482,2
DA:483,2
DA:484,2
DA:485,2
DA:486,2
DA:487,2
DA:488,2
DA:489,2
DA:490,2
DA:491,2
DA:492,2
DA:493,2
DA:494,2
DA:495,2
DA:496,2
DA:497,2
DA:498,2
DA:499,2
DA:500,2
DA:501,2
DA:502,2
DA:503,2
DA:504,2
DA:505,2
DA:506,2
DA:507,2
DA:508,2
DA:509,2
DA:510,2
DA:511,2
DA:512,2
DA:513,2
DA:514,2
DA:515,2
DA:516,2
DA:517,2
DA:518,2
DA:519,2
DA:520,2
DA:521,2
DA:522,2
DA:523,2
DA:524,2
DA:525,2
DA:526,2
DA:527,2
DA:528,2
DA:529,2
DA:530,2
DA:531,2
DA:534,2
DA:540,2
DA:541,2
DA:542,2
DA:543,2
DA:544,2
DA:545,2
DA:546,2
DA:547,2
DA:548,2
DA:549,2
DA:550,2
DA:551,2
DA:552,2
DA:553,2
DA:554,2
DA:555,2
DA:556,2
DA:557,2
DA:558,2
DA:559,2
DA:560,2
DA:561,2
DA:562,2
DA:563,2
DA:564,2
DA:565,2
DA:566,2
DA:567,2
DA:568,2
DA:569,2
DA:570,2
DA:571,2
DA:572,2
DA:573,2
DA:574,2
DA:575,2
DA:576,2
DA:577,2
DA:578,2
DA:579,2
DA:580,2
DA:581,2
DA:582,2
DA:585,1
DA:591,1
DA:592,1
DA:593,1
DA:594,1
DA:595,1
DA:596,1
DA:597,1
DA:598,1
DA:599,1
DA:600,1
DA:601,1
DA:602,1
DA:603,1
DA:604,1
DA:605,1
DA:606,1
DA:607,1
DA:608,1
DA:609,1
DA:610,1
DA:611,1
DA:612,1
DA:613,1
DA:614,1
DA:615,1
DA:616,1
DA:617,1
DA:618,1
DA:619,1
DA:620,1
DA:621,1
DA:622,1
DA:623,1
DA:624,1
DA:625,1
DA:626,1
DA:627,1
DA:628,1
DA:629,1
DA:630,1
DA:631,1
DA:632,1
DA:633,1
DA:634,1
DA:635,1
DA:636,1
DA:637,1
DA:638,1
DA:639,1
DA:640,1
DA:641,1
DA:642,1
DA:643,1
DA:644,1
DA:645,1
DA:646,1
DA:647,1
DA:648,1
DA:654,1
DA:656,44
DA:662,134
DA:663,134
DA:664,102
DA:666,6
DA:668,8
DA:669,8
DA:670,8
DA:671,8
DA:672,8
DA:673,8
DA:676,1
DA:677,1
DA:679,1
DA:680,1
DA:681,1
DA:682,1
DA:684,0
DA:685,0
DA:686,0
DA:687,0
DA:688,0
DA:692,1
DA:694,1
DA:695,1
DA:696,1
DA:697,1
DA:698,1
DA:699,1
DA:700,1
DA:703,2
DA:704,2
DA:705,2
DA:706,2
DA:707,2
DA:710,2
DA:711,1
DA:712,1
DA:713,1
DA:714,1
DA:715,1
DA:716,1
DA:719,1
DA:720,1
DA:721,1
DA:722,1
DA:723,1
DA:724,1
DA:725,1
DA:726,0
DA:729,0
DA:730,0
DA:731,0
DA:732,0
DA:733,0
DA:734,0
DA:738,1
DA:739,1
DA:740,1
DA:742,1
DA:743,1
DA:744,1
DA:745,1
DA:746,1
DA:747,1
DA:748,1
DA:749,1
DA:750,1
DA:751,1
DA:754,0
DA:755,0
DA:756,0
DA:757,0
DA:758,0
DA:760,1
DA:761,1
DA:762,1
DA:763,1
DA:765,0
DA:769,0
DA:770,0
DA:771,0
DA:772,0
DA:773,0
DA:774,0
DA:775,0
DA:776,0
DA:781,1
DA:782,1
DA:783,1
DA:784,1
DA:785,1
DA:786,1
DA:787,1
DA:788,1
DA:791,1
DA:792,1
DA:793,1
DA:795,1
DA:797,1
DA:798,1
DA:799,1
DA:800,1
DA:801,1
DA:803,1
DA:804,1
DA:805,1
DA:806,1
DA:808,1
DA:809,1
DA:810,1
DA:811,1
DA:812,1
DA:813,1
DA:816,2
DA:817,2
DA:818,2
DA:819,1
DA:820,1
DA:821,1
DA:822,1
DA:823,1
DA:824,1
DA:825,1
DA:826,1
DA:827,1
DA:828,1
DA:830,1
DA:833,2
DA:834,2
DA:835,2
DA:836,2
DA:837,2
DA:840,5
DA:841,5
DA:842,5
DA:843,5
DA:846,1
DA:849,1
DA:850,1
DA:851,1
DA:852,1
DA:853,1
DA:854,1
DA:855,1
DA:858,1
DA:859,1
DA:860,3
DA:861,1
DA:864,1
DA:868,1
DA:871,0
DA:873,0
DA:874,0
DA:875,0
DA:876,0
DA:877,0
DA:878,0
DA:879,0
DA:882,134
DA:888,6
DA:889,6
DA:891,6
DA:892,0
DA:893,6
DA:895,6
DA:898,6
DA:899,6
DA:900,2
DA:901,2
DA:902,2
DA:903,2
DA:904,2
DA:906,4
DA:907,1
DA:908,1
DA:909,1
DA:910,1
DA:911,1
DA:913,3
DA:914,1
DA:915,1
DA:916,1
DA:917,1
DA:918,1
DA:920,2
DA:924,2
DA:925,0
DA:926,0
DA:927,0
DA:928,0
DA:929,0
DA:930,2
DA:936,2
DA:937,1
DA:938,0
DA:939,0
DA:940,0
DA:941,0
DA:942,1
DA:944,1
DA:945,1
DA:946,1
DA:947,1
DA:948,1
DA:952,3
DA:953,1
DA:954,1
DA:955,1
DA:956,1
DA:957,6
DA:963,5
DA:964,5
DA:965,5
DA:966,5
DA:967,5
DA:968,5
DA:969,5
DA:971,5
DA:972,5
DA:974,5
DA:975,1
DA:976,1
DA:977,1
DA:979,1
DA:980,1
DA:981,1
DA:982,1
DA:983,1
DA:984,1
DA:986,0
DA:987,0
DA:988,0
DA:989,0
DA:990,0
DA:992,1
DA:993,1
DA:994,1
DA:995,1
DA:996,1
DA:997,1
DA:1001,1
DA:1002,1
DA:1003,1
DA:1004,1
DA:1005,1
DA:1006,1
DA:1007,1
DA:1008,1
DA:1010,1
DA:1013,2
DA:1014,2
DA:1015,2
DA:1016,2
DA:1017,2
DA:1018,2
DA:1019,2
DA:1023,0
DA:1024,0
DA:1025,0
DA:1026,0
DA:1030,5
DA:1031,5
DA:1032,5
DA:1033,5
DA:1034,5
DA:1035,5
DA:1037,5
DA:1038,5
DA:1039,5
DA:1040,0
DA:1041,0
DA:1042,0
DA:1043,0
DA:1044,0
DA:1045,0
DA:1047,0
DA:1048,0
DA:1049,0
DA:1050,0
DA:1052,0
DA:1053,0
DA:1054,0
DA:1055,0
DA:1056,0
DA:1057,0
DA:1058,0
DA:1059,0
DA:1060,0
DA:1061,0
DA:1062,0
DA:1063,0
DA:1064,0
DA:1065,0
DA:1066,0
DA:1069,0
DA:1070,0
DA:1071,0
DA:1072,0
DA:1075,0
DA:1077,0
DA:1078,0
DA:1080,0
DA:1084,5
DA:1086,0
DA:1087,0
DA:1088,0
DA:1089,0
DA:1090,0
DA:1092,0
DA:1095,0
DA:1097,0
DA:1099,0
DA:1105,16
DA:1106,16
DA:1107,15
DA:1108,1
DA:1110,16
DA:1112,19
DA:1113,19
DA:1114,19
DA:1115,0
DA:1117,19
DA:1123,99
DA:1124,99
DA:1125,32
DA:1126,67
DA:1128,99
DA:1144,109
DA:1145,109
DA:1146,109
DA:1147,109
DA:1148,109
BRF:0
BRH:0
LF:826
LH:684
end_of_record
SF:/home/scott/Projects/AgentProof/aegis-compiler/src/main.rs
FN:1,_RNvCs4GoE6sMTXS_6aegisc4main
FN:1,_RNvCslGjZQQUxSay_6aegisc4main
FNDA:0,_RNvCs4GoE6sMTXS_6aegisc4main
FNDA:0,_RNvCslGjZQQUxSay_6aegisc4main
FNF:1
FNH:0
DA:1,0
DA:2,0
DA:3,0
DA:4,0
BRF:0
BRH:0
LF:4
LH:0
end_of_record
SF:/home/scott/Projects/AgentProof/aegis-compiler/src/parser.rs
FN:1538,_RNvNtCs6BFVBPdMni0_14aegis_compiler6parser12build_lambda
FN:176,_RNvNtCs6BFVBPdMni0_14aegis_compiler6parser12non_kw_inner
FN:40,_RNvNtCs6BFVBPdMni0_14aegis_compiler6parser12parse_source
FN:732,_RNvNtCs6BFVBPdMni0_14aegis_compiler6parser13build_base_ty
FN:982,_RNvNtCs6BFVBPdMni0_14aegis_compiler6parser13build_eq_expr
FN:1743,_RNvNtCs6BFVBPdMni0_14aegis_compiler6parser13build_literal
FN:954,_RNvNtCs6BFVBPdMni0_14aegis_compiler6parser13build_or_expr
FN:1592,_RNvNtCs6BFVBPdMni0_14aegis_compiler6parser13build_pattern
FN:1334,_RNvNtCs6BFVBPdMni0_14aegis_compiler6parser13build_primary
FN:1138,_RNvNtCs6BFVBPdMni0_14aegis_compiler6parser14build_add_expr
FN:968,_RNvNtCs6BFVBPdMni0_14aegis_compiler6parser14build_and_expr
FN:1311,_RNvNtCs6BFVBPdMni0_14aegis_compiler6parser14build_argument
FN:1152,_RNvNtCs6BFVBPdMni0_14aegis_compiler6parser14build_mul_expr
FN:997,_RNvNtCs6BFVBPdMni0_14aegis_compiler6parser14build_rel_expr
FN:1761,_RNvNtCs6BFVBPdMni0_14aegis_compiler6parser14parse_duration
FN:1303,_RNvNtCs6BFVBPdMni0_14aegis_compiler6parser15build_call_args
FN:1420,_RNvNtCs6BFVBPdMni0_14aegis_compiler6parser15build_match_arm
FN:403,_RNvNtCs6BFVBPdMni0_14aegis_compiler6parser15build_rule_decl
FN:659,_RNvNtCs6BFVBPdMni0_14aegis_compiler6parser15build_type_decl
FN:876,_RNvNtCs6BFVBPdMni0_14aegis_compiler6parser16build_annotation
FN:1510,_RNvNtCs6BFVBPdMni0_14aegis_compiler6parser16build_count_expr
FN:926,_RNvNtCs6BFVBPdMni0_14aegis_compiler6parser16build_expression
FN:1395,_RNvNtCs6BFVBPdMni0_14aegis_compiler6parser16build_match_expr
FN:1598,_RNvNtCs6BFVBPdMni0_14aegis_compiler6parser16build_or_pattern
FN:632,_RNvNtCs6BFVBPdMni0_14aegis_compiler6parser16build_proof_decl
FN:1167,_RNvNtCs6BFVBPdMni0_14aegis_compiler6parser16build_unary_expr
FN:546,_RNvNtCs6BFVBPdMni0_14aegis_compiler6parser17build_action_args
FN:1448,_RNvNtCs6BFVBPdMni0_14aegis_compiler6parser17build_block_stmts
FN:184,_RNvNtCs6BFVBPdMni0_14aegis_compiler6parser17build_declaration
FN:205,_RNvNtCs6BFVBPdMni0_14aegis_compiler6parser17build_import_decl
FN:240,_RNvNtCs6BFVBPdMni0_14aegis_compiler6parser17build_import_path
FN:276,_RNvNtCs6BFVBPdMni0_14aegis_compiler6parser17build_policy_decl
FN:436,_RNvNtCs6BFVBPdMni0_14aegis_compiler6parser17build_rule_clause
FN:705,_RNvNtCs6BFVBPdMni0_14aegis_compiler6parser17build_typed_field
FN:861,_RNvNtCs6BFVBPdMni0_14aegis_compiler6parser17build_typed_param
FN:1652,_RNvNtCs6BFVBPdMni0_14aegis_compiler6parser18build_base_pattern
FN:799,_RNvNtCs6BFVBPdMni0_14aegis_compiler6parser18build_binding_decl
FN:932,_RNvNtCs6BFVBPdMni0_14aegis_compiler6parser18build_implies_expr
FN:1577,_RNvNtCs6BFVBPdMni0_14aegis_compiler6parser18build_lambda_param
FN:1435,_RNvNtCs6BFVBPdMni0_14aegis_compiler6parser18build_match_result
FN:1191,_RNvNtCs6BFVBPdMni0_14aegis_compiler6parser18build_postfix_expr
FN:783,_RNvNtCs6BFVBPdMni0_14aegis_compiler6parser18build_primitive_ty
FN:373,_RNvNtCs6BFVBPdMni0_14aegis_compiler6parser18build_scope_clause
FN:382,_RNvNtCs6BFVBPdMni0_14aegis_compiler6parser18build_scope_target
FN:509,_RNvNtCs6BFVBPdMni0_14aegis_compiler6parser19build_action_clause
FN:823,_RNvNtCs6BFVBPdMni0_14aegis_compiler6parser19build_function_decl
FN:688,_RNvNtCs6BFVBPdMni0_14aegis_compiler6parser19build_generic_param
FN:1714,_RNvNtCs6BFVBPdMni0_14aegis_compiler6parser19build_pattern_field
FN:320,_RNvNtCs6BFVBPdMni0_14aegis_compiler6parser19build_policy_member
FN:1049,_RNvNtCs6BFVBPdMni0_14aegis_compiler6parser19build_temporal_atom
FN:1015,_RNvNtCs6BFVBPdMni0_14aegis_compiler6parser19build_temporal_expr
FN:1793,_RNvNtCs6BFVBPdMni0_14aegis_compiler6parser19strip_string_quotes
FN:96,_RNvNtCs6BFVBPdMni0_14aegis_compiler6parser1sB3_
FN:889,_RNvNtCs6BFVBPdMni0_14aegis_compiler6parser20build_annotation_arg
FN:681,_RNvNtCs6BFVBPdMni0_14aegis_compiler6parser20build_generic_params
FN:249,_RNvNtCs6BFVBPdMni0_14aegis_compiler6parser20build_import_targets
FN:642,_RNvNtCs6BFVBPdMni0_14aegis_compiler6parser20build_invariant_decl
FN:1288,_RNvNtCs6BFVBPdMni0_14aegis_compiler6parser20build_predicate_kind
FN:1801,_RNvNtCs6BFVBPdMni0_14aegis_compiler6parser20build_qualified_name
FN:356,_RNvNtCs6BFVBPdMni0_14aegis_compiler6parser20build_severity_level
FN:470,_RNvNtCs6BFVBPdMni0_14aegis_compiler6parser20build_verdict_clause
FN:1455,_RNvNtCs6BFVBPdMni0_14aegis_compiler6parser21build_block_statement
FN:587,_RNvNtCs6BFVBPdMni0_14aegis_compiler6parser21build_constraint_decl
FN:1612,_RNvNtCs6BFVBPdMni0_14aegis_compiler6parser21build_primary_pattern
FN:1471,_RNvNtCs6BFVBPdMni0_14aegis_compiler6parser21build_quantifier_expr
FN:347,_RNvNtCs6BFVBPdMni0_14aegis_compiler6parser21build_severity_clause
FN:905,_RNvNtCs6BFVBPdMni0_14aegis_compiler6parser22build_annotation_value
FN:698,_RNvNtCs6BFVBPdMni0_14aegis_compiler6parser22build_typed_field_list
FN:854,_RNvNtCs6BFVBPdMni0_14aegis_compiler6parser22build_typed_param_list
FN:103,_RNvNtCs6BFVBPdMni0_14aegis_compiler6parser5is_kw
FN:718,_RNvNtCs6BFVBPdMni0_14aegis_compiler6parser8build_ty
FN:1815,_RINvNtCs6BFVBPdMni0_14aegis_compiler6parser16fold_left_binaryNvB2_13build_eq_exprNCNvB2_14build_and_expr0EB4_
FN:1815,_RINvNtCs6BFVBPdMni0_14aegis_compiler6parser16fold_left_binaryNvB2_14build_and_exprNCNvB2_13build_or_expr0EB4_
FN:1815,_RINvNtCs6BFVBPdMni0_14aegis_compiler6parser16fold_left_binaryNvB2_14build_mul_exprNCNvB2_14build_add_expr0EB4_
FN:1815,_RINvNtCs6BFVBPdMni0_14aegis_compiler6parser16fold_left_binaryNvB2_14build_rel_exprNCNvB2_13build_eq_expr0EB4_
FN:1815,_RINvNtCs6BFVBPdMni0_14aegis_compiler6parser16fold_left_binaryNvB2_16build_unary_exprNCNvB2_14build_mul_expr0EB4_
FN:1815,_RINvNtCs6BFVBPdMni0_14aegis_compiler6parser16fold_left_binaryNvB2_19build_temporal_exprNCNvB2_14build_rel_expr0EB4_
FN:772,_RNCNCNvNtCs6BFVBPdMni0_14aegis_compiler6parser13build_base_ty00B7_
FN:773,_RNCNCNvNtCs6BFVBPdMni0_14aegis_compiler6parser13build_base_ty0s_0B7_
FN:1307,_RNCNCNvNtCs6BFVBPdMni0_14aegis_compiler6parser15build_call_args00B7_
FN:1674,_RNCNCNvNtCs6BFVBPdMni0_14aegis_compiler6parser18build_base_pattern00B7_
FN:1675,_RNCNCNvNtCs6BFVBPdMni0_14aegis_compiler6parser18build_base_pattern0s_0B7_
FN:267,_RNCNCNvNtCs6BFVBPdMni0_14aegis_compiler6parser20build_import_targetss_00B7_
FN:1563,_RNCNvNtCs6BFVBPdMni0_14aegis_compiler6parser12build_lambda0B5_
FN:177,_RNCNvNtCs6BFVBPdMni0_14aegis_compiler6parser12non_kw_inner0B5_
FN:770,_RNCNvNtCs6BFVBPdMni0_14aegis_compiler6parser13build_base_ty0B5_
FN:989,_RNCNvNtCs6BFVBPdMni0_14aegis_compiler6parser13build_eq_expr0B5_
FN:961,_RNCNvNtCs6BFVBPdMni0_14aegis_compiler6parser13build_or_expr0B5_
FN:1352,_RNCNvNtCs6BFVBPdMni0_14aegis_compiler6parser13build_primary0B5_
FN:1360,_RNCNvNtCs6BFVBPdMni0_14aegis_compiler6parser13build_primarys0_0B5_
FN:1361,_RNCNvNtCs6BFVBPdMni0_14aegis_compiler6parser13build_primarys1_0B5_
FN:1353,_RNCNvNtCs6BFVBPdMni0_14aegis_compiler6parser13build_primarys_0B5_
FN:1144,_RNCNvNtCs6BFVBPdMni0_14aegis_compiler6parser14build_add_expr0B5_
FN:975,_RNCNvNtCs6BFVBPdMni0_14aegis_compiler6parser14build_and_expr0B5_
FN:1158,_RNCNvNtCs6BFVBPdMni0_14aegis_compiler6parser14build_mul_expr0B5_
FN:1004,_RNCNvNtCs6BFVBPdMni0_14aegis_compiler6parser14build_rel_expr0B5_
FN:1307,_RNCNvNtCs6BFVBPdMni0_14aegis_compiler6parser15build_call_args0B5_
FN:884,_RNCNvNtCs6BFVBPdMni0_14aegis_compiler6parser16build_annotation0B5_
FN:1602,_RNCNvNtCs6BFVBPdMni0_14aegis_compiler6parser16build_or_pattern0B5_
FN:1603,_RNCNvNtCs6BFVBPdMni0_14aegis_compiler6parser16build_or_patterns_0B5_
FN:638,_RNCNvNtCs6BFVBPdMni0_14aegis_compiler6parser16build_proof_decl0B5_
FN:1450,_RNCNvNtCs6BFVBPdMni0_14aegis_compiler6parser17build_block_stmts0B5_
FN:1451,_RNCNvNtCs6BFVBPdMni0_14aegis_compiler6parser17build_block_stmtss_0B5_
FN:212,_RNCNvNtCs6BFVBPdMni0_14aegis_compiler6parser17build_import_decl0B5_
FN:225,_RNCNvNtCs6BFVBPdMni0_14aegis_compiler6parser17build_import_decls0_0B5_
FN:213,_RNCNvNtCs6BFVBPdMni0_14aegis_compiler6parser17build_import_decls_0B5_
FN:244,_RNCNvNtCs6BFVBPdMni0_14aegis_compiler6parser17build_import_path0B5_
FN:1670,_RNCNvNtCs6BFVBPdMni0_14aegis_compiler6parser18build_base_pattern0B5_
FN:1698,_RNCNvNtCs6BFVBPdMni0_14aegis_compiler6parser18build_base_patterns0_0B5_
FN:1697,_RNCNvNtCs6BFVBPdMni0_14aegis_compiler6parser18build_base_patterns_0B5_
FN:1585,_RNCNvNtCs6BFVBPdMni0_14aegis_compiler6parser18build_lambda_param0B5_
FN:1586,_RNCNvNtCs6BFVBPdMni0_14aegis_compiler6parser18build_lambda_params_0B5_
FN:377,_RNCNvNtCs6BFVBPdMni0_14aegis_compiler6parser18build_scope_clause0B5_
FN:694,_RNCNvNtCs6BFVBPdMni0_14aegis_compiler6parser19build_generic_param0B5_
FN:1060,_RNCNvNtCs6BFVBPdMni0_14aegis_compiler6parser19build_temporal_atom0B5_
FN:1075,_RNCNvNtCs6BFVBPdMni0_14aegis_compiler6parser19build_temporal_atoms0_0B5_
FN:1081,_RNCNvNtCs6BFVBPdMni0_14aegis_compiler6parser19build_temporal_atoms1_0B5_
FN:1090,_RNCNvNtCs6BFVBPdMni0_14aegis_compiler6parser19build_temporal_atoms2_0B5_
FN:1100,_RNCNvNtCs6BFVBPdMni0_14aegis_compiler6parser19build_temporal_atoms3_0B5_
FN:1110,_RNCNvNtCs6BFVBPdMni0_14aegis_compiler6parser19build_temporal_atoms4_0B5_
FN:1123,_RNCNvNtCs6BFVBPdMni0_14aegis_compiler6parser19build_temporal_atoms5_0B5_
FN:1066,_RNCNvNtCs6BFVBPdMni0_14aegis_compiler6parser19build_temporal_atoms_0B5_
FN:683,_RNCNvNtCs6BFVBPdMni0_14aegis_compiler6parser20build_generic_params0B5_
FN:258,_RNCNvNtCs6BFVBPdMni0_14aegis_compiler6parser20build_import_targets0B5_
FN:259,_RNCNvNtCs6BFVBPdMni0_14aegis_compiler6parser20build_import_targetss_0B5_
FN:649,_RNCNvNtCs6BFVBPdMni0_14aegis_compiler6parser20build_invariant_decl0B5_
FN:1805,_RNCNvNtCs6BFVBPdMni0_14aegis_compiler6parser20build_qualified_name0B5_
FN:700,_RNCNvNtCs6BFVBPdMni0_14aegis_compiler6parser22build_typed_field_list0B5_
FN:856,_RNCNvNtCs6BFVBPdMni0_14aegis_compiler6parser22build_typed_param_list0B5_
FN:722,_RNCNvNtCs6BFVBPdMni0_14aegis_compiler6parser8build_ty0B5_
FN:723,_RNCNvNtCs6BFVBPdMni0_14aegis_compiler6parser8build_tys_0B5_
FN:1815,_RINvNtCsjN0pppA1BUl_14aegis_compiler6parser16fold_left_binaryppEB4_
FN:772,_RNCNCNvNtCsjN0pppA1BUl_14aegis_compiler6parser13build_base_ty00B7_
FN:773,_RNCNCNvNtCsjN0pppA1BUl_14aegis_compiler6parser13build_base_ty0s_0B7_
FN:1307,_RNCNCNvNtCsjN0pppA1BUl_14aegis_compiler6parser15build_call_args00B7_
FN:1674,_RNCNCNvNtCsjN0pppA1BUl_14aegis_compiler6parser18build_base_pattern00B7_
FN:1675,_RNCNCNvNtCsjN0pppA1BUl_14aegis_compiler6parser18build_base_pattern0s_0B7_
FN:267,_RNCNCNvNtCsjN0pppA1BUl_14aegis_compiler6parser20build_import_targetss_00B7_
FN:1563,_RNCNvNtCsjN0pppA1BUl_14aegis_compiler6parser12build_lambda0B5_
FN:177,_RNCNvNtCsjN0pppA1BUl_14aegis_compiler6parser12non_kw_inner0B5_
FN:770,_RNCNvNtCsjN0pppA1BUl_14aegis_compiler6parser13build_base_ty0B5_
FN:989,_RNCNvNtCsjN0pppA1BUl_14aegis_compiler6parser13build_eq_expr0B5_
FN:961,_RNCNvNtCsjN0pppA1BUl_14aegis_compiler6parser13build_or_expr0B5_
FN:1352,_RNCNvNtCsjN0pppA1BUl_14aegis_compiler6parser13build_primary0B5_
FN:1360,_RNCNvNtCsjN0pppA1BUl_14aegis_compiler6parser13build_primarys0_0B5_
FN:1361,_RNCNvNtCsjN0pppA1BUl_14aegis_compiler6parser13build_primarys1_0B5_
FN:1353,_RNCNvNtCsjN0pppA1BUl_14aegis_compiler6parser13build_primarys_0B5_
FN:1144,_RNCNvNtCsjN0pppA1BUl_14aegis_compiler6parser14build_add_expr0B5_
FN:975,_RNCNvNtCsjN0pppA1BUl_14aegis_compiler6parser14build_and_expr0B5_
FN:1158,_RNCNvNtCsjN0pppA1BUl_14aegis_compiler6parser14build_mul_expr0B5_
FN:1004,_RNCNvNtCsjN0pppA1BUl_14aegis_compiler6parser14build_rel_expr0B5_
FN:1307,_RNCNvNtCsjN0pppA1BUl_14aegis_compiler6parser15build_call_args0B5_
FN:884,_RNCNvNtCsjN0pppA1BUl_14aegis_compiler6parser16build_annotation0B5_
FN:1602,_RNCNvNtCsjN0pppA1BUl_14aegis_compiler6parser16build_or_pattern0B5_
FN:1603,_RNCNvNtCsjN0pppA1BUl_14aegis_compiler6parser16build_or_patterns_0B5_
FN:638,_RNCNvNtCsjN0pppA1BUl_14aegis_compiler6parser16build_proof_decl0B5_
FN:1450,_RNCNvNtCsjN0pppA1BUl_14aegis_compiler6parser17build_block_stmts0B5_
FN:1451,_RNCNvNtCsjN0pppA1BUl_14aegis_compiler6parser17build_block_stmtss_0B5_
FN:212,_RNCNvNtCsjN0pppA1BUl_14aegis_compiler6parser17build_import_decl0B5_
FN:225,_RNCNvNtCsjN0pppA1BUl_14aegis_compiler6parser17build_import_decls0_0B5_
FN:213,_RNCNvNtCsjN0pppA1BUl_14aegis_compiler6parser17build_import_decls_0B5_
FN:244,_RNCNvNtCsjN0pppA1BUl_14aegis_compiler6parser17build_import_path0B5_
FN:1670,_RNCNvNtCsjN0pppA1BUl_14aegis_compiler6parser18build_base_pattern0B5_
FN:1698,_RNCNvNtCsjN0pppA1BUl_14aegis_compiler6parser18build_base_patterns0_0B5_
FN:1697,_RNCNvNtCsjN0pppA1BUl_14aegis_compiler6parser18build_base_patterns_0B5_
FN:1585,_RNCNvNtCsjN0pppA1BUl_14aegis_compiler6parser18build_lambda_param0B5_
FN:1586,_RNCNvNtCsjN0pppA1BUl_14aegis_compiler6parser18build_lambda_params_0B5_
FN:377,_RNCNvNtCsjN0pppA1BUl_14aegis_compiler6parser18build_scope_clause0B5_
FN:694,_RNCNvNtCsjN0pppA1BUl_14aegis_compiler6parser19build_generic_param0B5_
FN:1060,_RNCNvNtCsjN0pppA1BUl_14aegis_compiler6parser19build_temporal_atom0B5_
FN:1075,_RNCNvNtCsjN0pppA1BUl_14aegis_compiler6parser19build_temporal_atoms0_0B5_
FN:1081,_RNCNvNtCsjN0pppA1BUl_14aegis_compiler6parser19build_temporal_atoms1_0B5_
FN:1090,_RNCNvNtCsjN0pppA1BUl_14aegis_compiler6parser19build_temporal_atoms2_0B5_
FN:1100,_RNCNvNtCsjN0pppA1BUl_14aegis_compiler6parser19build_temporal_atoms3_0B5_
FN:1110,_RNCNvNtCsjN0pppA1BUl_14aegis_compiler6parser19build_temporal_atoms4_0B5_
FN:1123,_RNCNvNtCsjN0pppA1BUl_14aegis_compiler6parser19build_temporal_atoms5_0B5_
FN:1066,_RNCNvNtCsjN0pppA1BUl_14aegis_compiler6parser19build_temporal_atoms_0B5_
FN:683,_RNCNvNtCsjN0pppA1BUl_14aegis_compiler6parser20build_generic_params0B5_
FN:258,_RNCNvNtCsjN0pppA1BUl_14aegis_compiler6parser20build_import_targets0B5_
FN:259,_RNCNvNtCsjN0pppA1BUl_14aegis_compiler6parser20build_import_targetss_0B5_
FN:649,_RNCNvNtCsjN0pppA1BUl_14aegis_compiler6parser20build_invariant_decl0B5_
FN:1805,_RNCNvNtCsjN0pppA1BUl_14aegis_compiler6parser20build_qualified_name0B5_
FN:700,_RNCNvNtCsjN0pppA1BUl_14aegis_compiler6parser22build_typed_field_list0B5_
FN:856,_RNCNvNtCsjN0pppA1BUl_14aegis_compiler6parser22build_typed_param_list0B5_
FN:722,_RNCNvNtCsjN0pppA1BUl_14aegis_compiler6parser8build_ty0B5_
FN:723,_RNCNvNtCsjN0pppA1BUl_14aegis_compiler6parser8build_tys_0B5_
FN:1538,_RNvNtCsjN0pppA1BUl_14aegis_compiler6parser12build_lambda
FN:176,_RNvNtCsjN0pppA1BUl_14aegis_compiler6parser12non_kw_inner
FN:40,_RNvNtCsjN0pppA1BUl_14aegis_compiler6parser12parse_source
FN:732,_RNvNtCsjN0pppA1BUl_14aegis_compiler6parser13build_base_ty
FN:982,_RNvNtCsjN0pppA1BUl_14aegis_compiler6parser13build_eq_expr
FN:1743,_RNvNtCsjN0pppA1BUl_14aegis_compiler6parser13build_literal
FN:954,_RNvNtCsjN0pppA1BUl_14aegis_compiler6parser13build_or_expr
FN:1592,_RNvNtCsjN0pppA1BUl_14aegis_compiler6parser13build_pattern
FN:1334,_RNvNtCsjN0pppA1BUl_14aegis_compiler6parser13build_primary
FN:1138,_RNvNtCsjN0pppA1BUl_14aegis_compiler6parser14build_add_expr
FN:968,_RNvNtCsjN0pppA1BUl_14aegis_compiler6parser14build_and_expr
FN:1311,_RNvNtCsjN0pppA1BUl_14aegis_compiler6parser14build_argument
FN:1152,_RNvNtCsjN0pppA1BUl_14aegis_compiler6parser14build_mul_expr
FN:997,_RNvNtCsjN0pppA1BUl_14aegis_compiler6parser14build_rel_expr
FN:1761,_RNvNtCsjN0pppA1BUl_14aegis_compiler6parser14parse_duration
FN:1303,_RNvNtCsjN0pppA1BUl_14aegis_compiler6parser15build_call_args
FN:1420,_RNvNtCsjN0pppA1BUl_14aegis_compiler6parser15build_match_arm
FN:403,_RNvNtCsjN0pppA1BUl_14aegis_compiler6parser15build_rule_decl
FN:659,_RNvNtCsjN0pppA1BUl_14aegis_compiler6parser15build_type_decl
FN:876,_RNvNtCsjN0pppA1BUl_14aegis_compiler6parser16build_annotation
FN:1510,_RNvNtCsjN0pppA1BUl_14aegis_compiler6parser16build_count_expr
FN:926,_RNvNtCsjN0pppA1BUl_14aegis_compiler6parser16build_expression
FN:1395,_RNvNtCsjN0pppA1BUl_14aegis_compiler6parser16build_match_expr
FN:1598,_RNvNtCsjN0pppA1BUl_14aegis_compiler6parser16build_or_pattern
FN:632,_RNvNtCsjN0pppA1BUl_14aegis_compiler6parser16build_proof_decl
FN:1167,_RNvNtCsjN0pppA1BUl_14aegis_compiler6parser16build_unary_expr
FN:546,_RNvNtCsjN0pppA1BUl_14aegis_compiler6parser17build_action_args
FN:1448,_RNvNtCsjN0pppA1BUl_14aegis_compiler6parser17build_block_stmts
FN:184,_RNvNtCsjN0pppA1BUl_14aegis_compiler6parser17build_declaration
FN:205,_RNvNtCsjN0pppA1BUl_14aegis_compiler6parser17build_import_decl
FN:240,_RNvNtCsjN0pppA1BUl_14aegis_compiler6parser17build_import_path
FN:276,_RNvNtCsjN0pppA1BUl_14aegis_compiler6parser17build_policy_decl
FN:436,_RNvNtCsjN0pppA1BUl_14aegis_compiler6parser17build_rule_clause
FN:705,_RNvNtCsjN0pppA1BUl_14aegis_compiler6parser17build_typed_field
FN:861,_RNvNtCsjN0pppA1BUl_14aegis_compiler6parser17build_typed_param
FN:1652,_RNvNtCsjN0pppA1BUl_14aegis_compiler6parser18build_base_pattern
FN:799,_RNvNtCsjN0pppA1BUl_14aegis_compiler6parser18build_binding_decl
FN:932,_RNvNtCsjN0pppA1BUl_14aegis_compiler6parser18build_implies_expr
FN:1577,_RNvNtCsjN0pppA1BUl_14aegis_compiler6parser18build_lambda_param
FN:1435,_RNvNtCsjN0pppA1BUl_14aegis_compiler6parser18build_match_result
FN:1191,_RNvNtCsjN0pppA1BUl_14aegis_compiler6parser18build_postfix_expr
FN:783,_RNvNtCsjN0pppA1BUl_14aegis_compiler6parser18build_primitive_ty
FN:373,_RNvNtCsjN0pppA1BUl_14aegis_compiler6parser18build_scope_clause
FN:382,_RNvNtCsjN0pppA1BUl_14aegis_compiler6parser18build_scope_target
FN:509,_RNvNtCsjN0pppA1BUl_14aegis_compiler6parser19build_action_clause
FN:823,_RNvNtCsjN0pppA1BUl_14aegis_compiler6parser19build_function_decl
FN:688,_RNvNtCsjN0pppA1BUl_14aegis_compiler6parser19build_generic_param
FN:1714,_RNvNtCsjN0pppA1BUl_14aegis_compiler6parser19build_pattern_field
FN:320,_RNvNtCsjN0pppA1BUl_14aegis_compiler6parser19build_policy_member
FN:1049,_RNvNtCsjN0pppA1BUl_14aegis_compiler6parser19build_temporal_atom
FN:1015,_RNvNtCsjN0pppA1BUl_14aegis_compiler6parser19build_temporal_expr
FN:1793,_RNvNtCsjN0pppA1BUl_14aegis_compiler6parser19strip_string_quotes
FN:96,_RNvNtCsjN0pppA1BUl_14aegis_compiler6parser1sB3_
FN:889,_RNvNtCsjN0pppA1BUl_14aegis_compiler6parser20build_annotation_arg
FN:681,_RNvNtCsjN0pppA1BUl_14aegis_compiler6parser20build_generic_params
FN:249,_RNvNtCsjN0pppA1BUl_14aegis_compiler6parser20build_import_targets
FN:642,_RNvNtCsjN0pppA1BUl_14aegis_compiler6parser20build_invariant_decl
FN:1288,_RNvNtCsjN0pppA1BUl_14aegis_compiler6parser20build_predicate_kind
FN:1801,_RNvNtCsjN0pppA1BUl_14aegis_compiler6parser20build_qualified_name
FN:356,_RNvNtCsjN0pppA1BUl_14aegis_compiler6parser20build_severity_level
FN:470,_RNvNtCsjN0pppA1BUl_14aegis_compiler6parser20build_verdict_clause
FN:1455,_RNvNtCsjN0pppA1BUl_14aegis_compiler6parser21build_block_statement
FN:587,_RNvNtCsjN0pppA1BUl_14aegis_compiler6parser21build_constraint_decl
FN:1612,_RNvNtCsjN0pppA1BUl_14aegis_compiler6parser21build_primary_pattern
FN:1471,_RNvNtCsjN0pppA1BUl_14aegis_compiler6parser21build_quantifier_expr
FN:347,_RNvNtCsjN0pppA1BUl_14aegis_compiler6parser21build_severity_clause
FN:905,_RNvNtCsjN0pppA1BUl_14aegis_compiler6parser22build_annotation_value
FN:698,_RNvNtCsjN0pppA1BUl_14aegis_compiler6parser22build_typed_field_list
FN:854,_RNvNtCsjN0pppA1BUl_14aegis_compiler6parser22build_typed_param_list
FN:103,_RNvNtCsjN0pppA1BUl_14aegis_compiler6parser5is_kw
FN:718,_RNvNtCsjN0pppA1BUl_14aegis_compiler6parser8build_ty
FN:1869,_RNvNtNtCsjN0pppA1BUl_14aegis_compiler6parser5testss_11debug_ident
FN:1881,_RNvNtNtCsjN0pppA1BUl_14aegis_compiler6parser5testss_17debug_declaration
FN:1875,_RNvNtNtCsjN0pppA1BUl_14aegis_compiler6parser5testss_17debug_policy_decl
FNDA:7,_RNvNtCs6BFVBPdMni0_14aegis_compiler6parser12build_lambda
FNDA:660,_RNvNtCs6BFVBPdMni0_14aegis_compiler6parser12non_kw_inner
FNDA:123,_RNvNtCs6BFVBPdMni0_14aegis_compiler6parser12parse_source
FNDA:18,_RNvNtCs6BFVBPdMni0_14aegis_compiler6parser13build_base_ty
FNDA:249,_RNvNtCs6BFVBPdMni0_14aegis_compiler6parser13build_eq_expr
FNDA:152,_RNvNtCs6BFVBPdMni0_14aegis_compiler6parser13build_literal
FNDA:246,_RNvNtCs6BFVBPdMni0_14aegis_compiler6parser13build_or_expr
FNDA:18,_RNvNtCs6BFVBPdMni0_14aegis_compiler6parser13build_pattern
FNDA:246,_RNvNtCs6BFVBPdMni0_14aegis_compiler6parser13build_primary
FNDA:239,_RNvNtCs6BFVBPdMni0_14aegis_compiler6parser14build_add_expr
FNDA:247,_RNvNtCs6BFVBPdMni0_14aegis_compiler6parser14build_and_expr
FNDA:3,_RNvNtCs6BFVBPdMni0_14aegis_compiler6parser14build_argument
FNDA:243,_RNvNtCs6BFVBPdMni0_14aegis_compiler6parser14build_mul_expr
FNDA:255,_RNvNtCs6BFVBPdMni0_14aegis_compiler6parser14build_rel_expr
FNDA:16,_RNvNtCs6BFVBPdMni0_14aegis_compiler6parser14parse_duration
FNDA:3,_RNvNtCs6BFVBPdMni0_14aegis_compiler6parser15build_call_args
FNDA:16,_RNvNtCs6BFVBPdMni0_14aegis_compiler6parser15build_match_arm
FNDA:27,_RNvNtCs6BFVBPdMni0_14aegis_compiler6parser15build_rule_decl
FNDA:2,_RNvNtCs6BFVBPdMni0_14aegis_compiler6parser15build_type_decl
FNDA:1,_RNvNtCs6BFVBPdMni0_14aegis_compiler6parser16build_annotation
FNDA:1,_RNvNtCs6BFVBPdMni0_14aegis_compiler6parser16build_count_expr
FNDA:245,_RNvNtCs6BFVBPdMni0_14aegis_compiler6parser16build_expression
FNDA:11,_RNvNtCs6BFVBPdMni0_14aegis_compiler6parser16build_match_expr
FNDA:18,_RNvNtCs6BFVBPdMni0_14aegis_compiler6parser16build_or_pattern
FNDA:11,_RNvNtCs6BFVBPdMni0_14aegis_compiler6parser16build_proof_decl
FNDA:248,_RNvNtCs6BFVBPdMni0_14aegis_compiler6parser16build_unary_expr
FNDA:5,_RNvNtCs6BFVBPdMni0_14aegis_compiler6parser17build_action_args
FNDA:4,_RNvNtCs6BFVBPdMni0_14aegis_compiler6parser17build_block_stmts
FNDA:113,_RNvNtCs6BFVBPdMni0_14aegis_compiler6parser17build_declaration
FNDA:4,_RNvNtCs6BFVBPdMni0_14aegis_compiler6parser17build_import_decl
FNDA:4,_RNvNtCs6BFVBPdMni0_14aegis_compiler6parser17build_import_path
FNDA:42,_RNvNtCs6BFVBPdMni0_14aegis_compiler6parser17build_policy_decl
FNDA:52,_RNvNtCs6BFVBPdMni0_14aegis_compiler6parser17build_rule_clause
FNDA:3,_RNvNtCs6BFVBPdMni0_14aegis_compiler6parser17build_typed_field
FNDA:3,_RNvNtCs6BFVBPdMni0_14aegis_compiler6parser17build_typed_param
FNDA:19,_RNvNtCs6BFVBPdMni0_14aegis_compiler6parser18build_base_pattern
FNDA:65,_RNvNtCs6BFVBPdMni0_14aegis_compiler6parser18build_binding_decl
FNDA:245,_RNvNtCs6BFVBPdMni0_14aegis_compiler6parser18build_implies_expr
FNDA:2,_RNvNtCs6BFVBPdMni0_14aegis_compiler6parser18build_lambda_param
FNDA:16,_RNvNtCs6BFVBPdMni0_14aegis_compiler6parser18build_match_result
FNDA:246,_RNvNtCs6BFVBPdMni0_14aegis_compiler6parser18build_postfix_expr
FNDA:14,_RNvNtCs6BFVBPdMni0_14aegis_compiler6parser18build_primitive_ty
FNDA:12,_RNvNtCs6BFVBPdMni0_14aegis_compiler6parser18build_scope_clause
FNDA:49,_RNvNtCs6BFVBPdMni0_14aegis_compiler6parser18build_scope_target
FNDA:5,_RNvNtCs6BFVBPdMni0_14aegis_compiler6parser19build_action_clause
FNDA:2,_RNvNtCs6BFVBPdMni0_14aegis_compiler6parser19build_function_decl
FNDA:1,_RNvNtCs6BFVBPdMni0_14aegis_compiler6parser19build_generic_param
FNDA:0,_RNvNtCs6BFVBPdMni0_14aegis_compiler6parser19build_pattern_field
FNDA:82,_RNvNtCs6BFVBPdMni0_14aegis_compiler6parser19build_policy_member
FNDA:268,_RNvNtCs6BFVBPdMni0_14aegis_compiler6parser19build_temporal_atom
FNDA:268,_RNvNtCs6BFVBPdMni0_14aegis_compiler6parser19build_temporal_expr
FNDA:37,_RNvNtCs6BFVBPdMni0_14aegis_compiler6parser19strip_string_quotes
FNDA:3537,_RNvNtCs6BFVBPdMni0_14aegis_compiler6parser1sB3_
FNDA:1,_RNvNtCs6BFVBPdMni0_14aegis_compiler6parser20build_annotation_arg
FNDA:1,_RNvNtCs6BFVBPdMni0_14aegis_compiler6parser20build_generic_params
FNDA:2,_RNvNtCs6BFVBPdMni0_14aegis_compiler6parser20build_import_targets
FNDA:19,_RNvNtCs6BFVBPdMni0_14aegis_compiler6parser20build_invariant_decl
FNDA:5,_RNvNtCs6BFVBPdMni0_14aegis_compiler6parser20build_predicate_kind
FNDA:144,_RNvNtCs6BFVBPdMni0_14aegis_compiler6parser20build_qualified_name
FNDA:22,_RNvNtCs6BFVBPdMni0_14aegis_compiler6parser20build_severity_level
FNDA:29,_RNvNtCs6BFVBPdMni0_14aegis_compiler6parser20build_verdict_clause
FNDA:7,_RNvNtCs6BFVBPdMni0_14aegis_compiler6parser21build_block_statement
FNDA:12,_RNvNtCs6BFVBPdMni0_14aegis_compiler6parser21build_constraint_decl
FNDA:19,_RNvNtCs6BFVBPdMni0_14aegis_compiler6parser21build_primary_pattern
FNDA:4,_RNvNtCs6BFVBPdMni0_14aegis_compiler6parser21build_quantifier_expr
FNDA:22,_RNvNtCs6BFVBPdMni0_14aegis_compiler6parser21build_severity_clause
FNDA:1,_RNvNtCs6BFVBPdMni0_14aegis_compiler6parser22build_annotation_value
FNDA:2,_RNvNtCs6BFVBPdMni0_14aegis_compiler6parser22build_typed_field_list
FNDA:2,_RNvNtCs6BFVBPdMni0_14aegis_compiler6parser22build_typed_param_list
FNDA:967,_RNvNtCs6BFVBPdMni0_14aegis_compiler6parser5is_kw
FNDA:17,_RNvNtCs6BFVBPdMni0_14aegis_compiler6parser8build_ty
FNDA:247,_RINvNtCs6BFVBPdMni0_14aegis_compiler6parser16fold_left_binaryNvB2_13build_eq_exprNCNvB2_14build_and_expr0EB4_
FNDA:246,_RINvNtCs6BFVBPdMni0_14aegis_compiler6parser16fold_left_binaryNvB2_14build_and_exprNCNvB2_13build_or_expr0EB4_
FNDA:239,_RINvNtCs6BFVBPdMni0_14aegis_compiler6parser16fold_left_binaryNvB2_14build_mul_exprNCNvB2_14build_add_expr0EB4_
FNDA:249,_RINvNtCs6BFVBPdMni0_14aegis_compiler6parser16fold_left_binaryNvB2_14build_rel_exprNCNvB2_13build_eq_expr0EB4_
FNDA:243,_RINvNtCs6BFVBPdMni0_14aegis_compiler6parser16fold_left_binaryNvB2_16build_unary_exprNCNvB2_14build_mul_expr0EB4_
FNDA:255,_RINvNtCs6BFVBPdMni0_14aegis_compiler6parser16fold_left_binaryNvB2_19build_temporal_exprNCNvB2_14build_rel_expr0EB4_
FNDA:0,_RNCNCNvNtCs6BFVBPdMni0_14aegis_compiler6parser13build_base_ty00B7_
FNDA:0,_RNCNCNvNtCs6BFVBPdMni0_14aegis_compiler6parser13build_base_ty0s_0B7_
FNDA:3,_RNCNCNvNtCs6BFVBPdMni0_14aegis_compiler6parser15build_call_args00B7_
FNDA:0,_RNCNCNvNtCs6BFVBPdMni0_14aegis_compiler6parser18build_base_pattern00B7_
FNDA:0,_RNCNCNvNtCs6BFVBPdMni0_14aegis_compiler6parser18build_base_pattern0s_0B7_
FNDA:0,_RNCNCNvNtCs6BFVBPdMni0_14aegis_compiler6parser20build_import_targetss_00B7_
FNDA:2,_RNCNvNtCs6BFVBPdMni0_14aegis_compiler6parser12build_lambda0B5_
FNDA:962,_RNCNvNtCs6BFVBPdMni0_14aegis_compiler6parser12non_kw_inner0B5_
FNDA:0,_RNCNvNtCs6BFVBPdMni0_14aegis_compiler6parser13build_base_ty0B5_
FNDA:6,_RNCNvNtCs6BFVBPdMni0_14aegis_compiler6parser13build_eq_expr0B5_
FNDA:1,_RNCNvNtCs6BFVBPdMni0_14aegis_compiler6parser13build_or_expr0B5_
FNDA:8,_RNCNvNtCs6BFVBPdMni0_14aegis_compiler6parser13build_primary0B5_
FNDA:3,_RNCNvNtCs6BFVBPdMni0_14aegis_compiler6parser13build_primarys0_0B5_
FNDA:3,_RNCNvNtCs6BFVBPdMni0_14aegis_compiler6parser13build_primarys1_0B5_
FNDA:8,_RNCNvNtCs6BFVBPdMni0_14aegis_compiler6parser13build_primarys_0B5_
FNDA:4,_RNCNvNtCs6BFVBPdMni0_14aegis_compiler6parser14build_add_expr0B5_
FNDA:2,_RNCNvNtCs6BFVBPdMni0_14aegis_compiler6parser14build_and_expr0B5_
FNDA:3,_RNCNvNtCs6BFVBPdMni0_14aegis_compiler6parser14build_mul_expr0B5_
FNDA:13,_RNCNvNtCs6BFVBPdMni0_14aegis_compiler6parser14build_rel_expr0B5_
FNDA:2,_RNCNvNtCs6BFVBPdMni0_14aegis_compiler6parser15build_call_args0B5_
FNDA:1,_RNCNvNtCs6BFVBPdMni0_14aegis_compiler6parser16build_annotation0B5_
FNDA:19,_RNCNvNtCs6BFVBPdMni0_14aegis_compiler6parser16build_or_pattern0B5_
FNDA:19,_RNCNvNtCs6BFVBPdMni0_14aegis_compiler6parser16build_or_patterns_0B5_
FNDA:19,_RNCNvNtCs6BFVBPdMni0_14aegis_compiler6parser16build_proof_decl0B5_
FNDA:7,_RNCNvNtCs6BFVBPdMni0_14aegis_compiler6parser17build_block_stmts0B5_
FNDA:7,_RNCNvNtCs6BFVBPdMni0_14aegis_compiler6parser17build_block_stmtss_0B5_
FNDA:4,_RNCNvNtCs6BFVBPdMni0_14aegis_compiler6parser17build_import_decl0B5_
FNDA:1,_RNCNvNtCs6BFVBPdMni0_14aegis_compiler6parser17build_import_decls0_0B5_
FNDA:4,_RNCNvNtCs6BFVBPdMni0_14aegis_compiler6parser17build_import_decls_0B5_
FNDA:10,_RNCNvNtCs6BFVBPdMni0_14aegis_compiler6parser17build_import_path0B5_
FNDA:0,_RNCNvNtCs6BFVBPdMni0_14aegis_compiler6parser18build_base_pattern0B5_
FNDA:2,_RNCNvNtCs6BFVBPdMni0_14aegis_compiler6parser18build_base_patterns0_0B5_
FNDA:2,_RNCNvNtCs6BFVBPdMni0_14aegis_compiler6parser18build_base_patterns_0B5_
FNDA:0,_RNCNvNtCs6BFVBPdMni0_14aegis_compiler6parser18build_lambda_param0B5_
FNDA:0,_RNCNvNtCs6BFVBPdMni0_14aegis_compiler6parser18build_lambda_params_0B5_
FNDA:22,_RNCNvNtCs6BFVBPdMni0_14aegis_compiler6parser18build_scope_clause0B5_
FNDA:0,_RNCNvNtCs6BFVBPdMni0_14aegis_compiler6parser19build_generic_param0B5_
FNDA:30,_RNCNvNtCs6BFVBPdMni0_14aegis_compiler6parser19build_temporal_atom0B5_
FNDA:6,_RNCNvNtCs6BFVBPdMni0_14aegis_compiler6parser19build_temporal_atoms0_0B5_
FNDA:1,_RNCNvNtCs6BFVBPdMni0_14aegis_compiler6parser19build_temporal_atoms1_0B5_
FNDA:20,_RNCNvNtCs6BFVBPdMni0_14aegis_compiler6parser19build_temporal_atoms2_0B5_
FNDA:2,_RNCNvNtCs6BFVBPdMni0_14aegis_compiler6parser19build_temporal_atoms3_0B5_
FNDA:3,_RNCNvNtCs6BFVBPdMni0_14aegis_compiler6parser19build_temporal_atoms4_0B5_
FNDA:3,_RNCNvNtCs6BFVBPdMni0_14aegis_compiler6parser19build_temporal_atoms5_0B5_
FNDA:1,_RNCNvNtCs6BFVBPdMni0_14aegis_compiler6parser19build_temporal_atoms_0B5_
FNDA:1,_RNCNvNtCs6BFVBPdMni0_14aegis_compiler6parser20build_generic_params0B5_
FNDA:2,_RNCNvNtCs6BFVBPdMni0_14aegis_compiler6parser20build_import_targets0B5_
FNDA:2,_RNCNvNtCs6BFVBPdMni0_14aegis_compiler6parser20build_import_targetss_0B5_
FNDA:20,_RNCNvNtCs6BFVBPdMni0_14aegis_compiler6parser20build_invariant_decl0B5_
FNDA:152,_RNCNvNtCs6BFVBPdMni0_14aegis_compiler6parser20build_qualified_name0B5_
FNDA:3,_RNCNvNtCs6BFVBPdMni0_14aegis_compiler6parser22build_typed_field_list0B5_
FNDA:3,_RNCNvNtCs6BFVBPdMni0_14aegis_compiler6parser22build_typed_param_list0B5_
FNDA:18,_RNCNvNtCs6BFVBPdMni0_14aegis_compiler6parser8build_ty0B5_
FNDA:18,_RNCNvNtCs6BFVBPdMni0_14aegis_compiler6parser8build_tys_0B5_
FNDA:0,_RINvNtCsjN0pppA1BUl_14aegis_compiler6parser16fold_left_binaryppEB4_
FNDA:0,_RNCNCNvNtCsjN0pppA1BUl_14aegis_compiler6parser13build_base_ty00B7_
FNDA:0,_RNCNCNvNtCsjN0pppA1BUl_14aegis_compiler6parser13build_base_ty0s_0B7_
FNDA:0,_RNCNCNvNtCsjN0pppA1BUl_14aegis_compiler6parser15build_call_args00B7_
FNDA:0,_RNCNCNvNtCsjN0pppA1BUl_14aegis_compiler6parser18build_base_pattern00B7_
FNDA:0,_RNCNCNvNtCsjN0pppA1BUl_14aegis_compiler6parser18build_base_pattern0s_0B7_
FNDA:0,_RNCNCNvNtCsjN0pppA1BUl_14aegis_compiler6parser20build_import_targetss_00B7_
FNDA:0,_RNCNvNtCsjN0pppA1BUl_14aegis_compiler6parser12build_lambda0B5_
FNDA:0,_RNCNvNtCsjN0pppA1BUl_14aegis_compiler6parser12non_kw_inner0B5_
FNDA:0,_RNCNvNtCsjN0pppA1BUl_14aegis_compiler6parser13build_base_ty0B5_
FNDA:0,_RNCNvNtCsjN0pppA1BUl_14aegis_compiler6parser13build_eq_expr0B5_
FNDA:0,_RNCNvNtCsjN0pppA1BUl_14aegis_compiler6parser13build_or_expr0B5_
FNDA:0,_RNCNvNtCsjN0pppA1BUl_14aegis_compiler6parser13build_primary0B5_
FNDA:0,_RNCNvNtCsjN0pppA1BUl_14aegis_compiler6parser13build_primarys0_0B5_
FNDA:0,_RNCNvNtCsjN0pppA1BUl_14aegis_compiler6parser13build_primarys1_0B5_
FNDA:0,_RNCNvNtCsjN0pppA1BUl_14aegis_compiler6parser13build_primarys_0B5_
FNDA:0,_RNCNvNtCsjN0pppA1BUl_14aegis_compiler6parser14build_add_expr0B5_
FNDA:0,_RNCNvNtCsjN0pppA1BUl_14aegis_compiler6parser14build_and_expr0B5_
FNDA:0,_RNCNvNtCsjN0pppA1BUl_14aegis_compiler6parser14build_mul_expr0B5_
FNDA:0,_RNCNvNtCsjN0pppA1BUl_14aegis_compiler6parser14build_rel_expr0B5_
FNDA:0,_RNCNvNtCsjN0pppA1BUl_14aegis_compiler6parser15build_call_args0B5_
FNDA:0,_RNCNvNtCsjN0pppA1BUl_14aegis_compiler6parser16build_annotation0B5_
FNDA:0,_RNCNvNtCsjN0pppA1BUl_14aegis_compiler6parser16build_or_pattern0B5_
FNDA:0,_RNCNvNtCsjN0pppA1BUl_14aegis_compiler6parser16build_or_patterns_0B5_
FNDA:0,_RNCNvNtCsjN0pppA1BUl_14aegis_compiler6parser16build_proof_decl0B5_
FNDA:0,_RNCNvNtCsjN0pppA1BUl_14aegis_compiler6parser17build_block_stmts0B5_
FNDA:0,_RNCNvNtCsjN0pppA1BUl_14aegis_compiler6parser17build_block_stmtss_0B5_
FNDA:0,_RNCNvNtCsjN0pppA1BUl_14aegis_compiler6parser17build_import_decl0B5_
FNDA:0,_RNCNvNtCsjN0pppA1BUl_14aegis_compiler6parser17build_import_decls0_0B5_
FNDA:0,_RNCNvNtCsjN0pppA1BUl_14aegis_compiler6parser17build_import_decls_0B5_
FNDA:0,_RNCNvNtCsjN0pppA1BUl_14aegis_compiler6parser17build_import_path0B5_
FNDA:0,_RNCNvNtCsjN0pppA1BUl_14aegis_compiler6parser18build_base_pattern0B5_
FNDA:0,_RNCNvNtCsjN0pppA1BUl_14aegis_compiler6parser18build_base_patterns0_0B5_
FNDA:0,_RNCNvNtCsjN0pppA1BUl_14aegis_compiler6parser18build_base_patterns_0B5_
FNDA:0,_RNCNvNtCsjN0pppA1BUl_14aegis_compiler6parser18build_lambda_param0B5_
FNDA:0,_RNCNvNtCsjN0pppA1BUl_14aegis_compiler6parser18build_lambda_params_0B5_
FNDA:0,_RNCNvNtCsjN0pppA1BUl_14aegis_compiler6parser18build_scope_clause0B5_
FNDA:0,_RNCNvNtCsjN0pppA1BUl_14aegis_compiler6parser19build_generic_param0B5_
FNDA:0,_RNCNvNtCsjN0pppA1BUl_14aegis_compiler6parser19build_temporal_atom0B5_
FNDA:0,_RNCNvNtCsjN0pppA1BUl_14aegis_compiler6parser19build_temporal_atoms0_0B5_
FNDA:0,_RNCNvNtCsjN0pppA1BUl_14aegis_compiler6parser19build_temporal_atoms1_0B5_
FNDA:0,_RNCNvNtCsjN0pppA1BUl_14aegis_compiler6parser19build_temporal_atoms2_0B5_
FNDA:0,_RNCNvNtCsjN0pppA1BUl_14aegis_compiler6parser19build_temporal_atoms3_0B5_
FNDA:0,_RNCNvNtCsjN0pppA1BUl_14aegis_compiler6parser19build_temporal_atoms4_0B5_
FNDA:0,_RNCNvNtCsjN0pppA1BUl_14aegis_compiler6parser19build_temporal_atoms5_0B5_
FNDA:0,_RNCNvNtCsjN0pppA1BUl_14aegis_compiler6parser19build_temporal_atoms_0B5_
FNDA:0,_RNCNvNtCsjN0pppA1BUl_14aegis_compiler6parser20build_generic_params0B5_
FNDA:0,_RNCNvNtCsjN0pppA1BUl_14aegis_compiler6parser20build_import_targets0B5_
FNDA:0,_RNCNvNtCsjN0pppA1BUl_14aegis_compiler6parser20build_import_targetss_0B5_
FNDA:0,_RNCNvNtCsjN0pppA1BUl_14aegis_compiler6parser20build_invariant_decl0B5_
FNDA:0,_RNCNvNtCsjN0pppA1BUl_14aegis_compiler6parser20build_qualified_name0B5_
FNDA:0,_RNCNvNtCsjN0pppA1BUl_14aegis_compiler6parser22build_typed_field_list0B5_
FNDA:0,_RNCNvNtCsjN0pppA1BUl_14aegis_compiler6parser22build_typed_param_list0B5_
FNDA:0,_RNCNvNtCsjN0pppA1BUl_14aegis_compiler6parser8build_ty0B5_
FNDA:0,_RNCNvNtCsjN0pppA1BUl_14aegis_compiler6parser8build_tys_0B5_
FNDA:0,_RNvNtCsjN0pppA1BUl_14aegis_compiler6parser12build_lambda
FNDA:0,_RNvNtCsjN0pppA1BUl_14aegis_compiler6parser12non_kw_inner
FNDA:0,_RNvNtCsjN0pppA1BUl_14aegis_compiler6parser12parse_source
FNDA:0,_RNvNtCsjN0pppA1BUl_14aegis_compiler6parser13build_base_ty
FNDA:0,_RNvNtCsjN0pppA1BUl_14aegis_compiler6parser13build_eq_expr
FNDA:0,_RNvNtCsjN0pppA1BUl_14aegis_compiler6parser13build_literal
FNDA:0,_RNvNtCsjN0pppA1BUl_14aegis_compiler6parser13build_or_expr
FNDA:0,_RNvNtCsjN0pppA1BUl_14aegis_compiler6parser13build_pattern
FNDA:0,_RNvNtCsjN0pppA1BUl_14aegis_compiler6parser13build_primary
FNDA:0,_RNvNtCsjN0pppA1BUl_14aegis_compiler6parser14build_add_expr
FNDA:0,_RNvNtCsjN0pppA1BUl_14aegis_compiler6parser14build_and_expr
FNDA:0,_RNvNtCsjN0pppA1BUl_14aegis_compiler6parser14build_argument
FNDA:0,_RNvNtCsjN0pppA1BUl_14aegis_compiler6parser14build_mul_expr
FNDA:0,_RNvNtCsjN0pppA1BUl_14aegis_compiler6parser14build_rel_expr
FNDA:0,_RNvNtCsjN0pppA1BUl_14aegis_compiler6parser14parse_duration
FNDA:0,_RNvNtCsjN0pppA1BUl_14aegis_compiler6parser15build_call_args
FNDA:0,_RNvNtCsjN0pppA1BUl_14aegis_compiler6parser15build_match_arm
FNDA:0,_RNvNtCsjN0pppA1BUl_14aegis_compiler6parser15build_rule_decl
FNDA:0,_RNvNtCsjN0pppA1BUl_14aegis_compiler6parser15build_type_decl
FNDA:0,_RNvNtCsjN0pppA1BUl_14aegis_compiler6parser16build_annotation
FNDA:0,_RNvNtCsjN0pppA1BUl_14aegis_compiler6parser16build_count_expr
FNDA:0,_RNvNtCsjN0pppA1BUl_14aegis_compiler6parser16build_expression
FNDA:0,_RNvNtCsjN0pppA1BUl_14aegis_compiler6parser16build_match_expr
FNDA:0,_RNvNtCsjN0pppA1BUl_14aegis_compiler6parser16build_or_pattern
FNDA:0,_RNvNtCsjN0pppA1BUl_14aegis_compiler6parser16build_proof_decl
FNDA:0,_RNvNtCsjN0pppA1BUl_14aegis_compiler6parser16build_unary_expr
FNDA:0,_RNvNtCsjN0pppA1BUl_14aegis_compiler6parser17build_action_args
FNDA:0,_RNvNtCsjN0pppA1BUl_14aegis_compiler6parser17build_block_stmts
FNDA:0,_RNvNtCsjN0pppA1BUl_14aegis_compiler6parser17build_declaration
FNDA:0,_RNvNtCsjN0pppA1BUl_14aegis_compiler6parser17build_import_decl
FNDA:0,_RNvNtCsjN0pppA1BUl_14aegis_compiler6parser17build_import_path
FNDA:0,_RNvNtCsjN0pppA1BUl_14aegis_compiler6parser17build_policy_decl
FNDA:0,_RNvNtCsjN0pppA1BUl_14aegis_compiler6parser17build_rule_clause
FNDA:0,_RNvNtCsjN0pppA1BUl_14aegis_compiler6parser17build_typed_field
FNDA:0,_RNvNtCsjN0pppA1BUl_14aegis_compiler6parser17build_typed_param
FNDA:0,_RNvNtCsjN0pppA1BUl_14aegis_compiler6parser18build_base_pattern
FNDA:0,_RNvNtCsjN0pppA1BUl_14aegis_compiler6parser18build_binding_decl
FNDA:0,_RNvNtCsjN0pppA1BUl_14aegis_compiler6parser18build_implies_expr
FNDA:0,_RNvNtCsjN0pppA1BUl_14aegis_compiler6parser18build_lambda_param
FNDA:0,_RNvNtCsjN0pppA1BUl_14aegis_compiler6parser18build_match_result
FNDA:0,_RNvNtCsjN0pppA1BUl_14aegis_compiler6parser18build_postfix_expr
FNDA:0,_RNvNtCsjN0pppA1BUl_14aegis_compiler6parser18build_primitive_ty
FNDA:0,_RNvNtCsjN0pppA1BUl_14aegis_compiler6parser18build_scope_clause
FNDA:0,_RNvNtCsjN0pppA1BUl_14aegis_compiler6parser18build_scope_target
FNDA:0,_RNvNtCsjN0pppA1BUl_14aegis_compiler6parser19build_action_clause
FNDA:0,_RNvNtCsjN0pppA1BUl_14aegis_compiler6parser19build_function_decl
FNDA:0,_RNvNtCsjN0pppA1BUl_14aegis_compiler6parser19build_generic_param
FNDA:0,_RNvNtCsjN0pppA1BUl_14aegis_compiler6parser19build_pattern_field
FNDA:0,_RNvNtCsjN0pppA1BUl_14aegis_compiler6parser19build_policy_member
FNDA:0,_RNvNtCsjN0pppA1BUl_14aegis_compiler6parser19build_temporal_atom
FNDA:0,_RNvNtCsjN0pppA1BUl_14aegis_compiler6parser19build_temporal_expr
FNDA:0,_RNvNtCsjN0pppA1BUl_14aegis_compiler6parser19strip_string_quotes
FNDA:0,_RNvNtCsjN0pppA1BUl_14aegis_compiler6parser1sB3_
FNDA:0,_RNvNtCsjN0pppA1BUl_14aegis_compiler6parser20build_annotation_arg
FNDA:0,_RNvNtCsjN0pppA1BUl_14aegis_compiler6parser20build_generic_params
FNDA:0,_RNvNtCsjN0pppA1BUl_14aegis_compiler6parser20build_import_targets
FNDA:0,_RNvNtCsjN0pppA1BUl_14aegis_compiler6parser20build_invariant_decl
FNDA:0,_RNvNtCsjN0pppA1BUl_14aegis_compiler6parser20build_predicate_kind
FNDA:0,_RNvNtCsjN0pppA1BUl_14aegis_compiler6parser20build_qualified_name
FNDA:0,_RNvNtCsjN0pppA1BUl_14aegis_compiler6parser20build_severity_level
FNDA:0,_RNvNtCsjN0pppA1BUl_14aegis_compiler6parser20build_verdict_clause
FNDA:0,_RNvNtCsjN0pppA1BUl_14aegis_compiler6parser21build_block_statement
FNDA:0,_RNvNtCsjN0pppA1BUl_14aegis_compiler6parser21build_constraint_decl
FNDA:0,_RNvNtCsjN0pppA1BUl_14aegis_compiler6parser21build_primary_pattern
FNDA:0,_RNvNtCsjN0pppA1BUl_14aegis_compiler6parser21build_quantifier_expr
FNDA:0,_RNvNtCsjN0pppA1BUl_14aegis_compiler6parser21build_severity_clause
FNDA:0,_RNvNtCsjN0pppA1BUl_14aegis_compiler6parser22build_annotation_value
FNDA:0,_RNvNtCsjN0pppA1BUl_14aegis_compiler6parser22build_typed_field_list
FNDA:0,_RNvNtCsjN0pppA1BUl_14aegis_compiler6parser22build_typed_param_list
FNDA:0,_RNvNtCsjN0pppA1BUl_14aegis_compiler6parser5is_kw
FNDA:0,_RNvNtCsjN0pppA1BUl_14aegis_compiler6parser8build_ty
FNDA:1,_RNvNtNtCsjN0pppA1BUl_14aegis_compiler6parser5testss_11debug_ident
FNDA:1,_RNvNtNtCsjN0pppA1BUl_14aegis_compiler6parser5testss_17debug_declaration
FNDA:1,_RNvNtNtCsjN0pppA1BUl_14aegis_compiler6parser5testss_17debug_policy_decl
FNF:129
FNH:118
DA:40,123
DA:41,123
DA:43,123
DA:44,122
DA:45,1
DA:46,1
DA:47,1
DA:48,0
DA:50,1
DA:51,1
DA:52,1
DA:53,1
DA:55,1
DA:56,1
DA:57,1
DA:58,1
DA:59,1
DA:60,1
DA:61,1
DA:66,122
DA:67,122
DA:68,122
DA:70,235
DA:71,235
DA:73,113
DA:75,113
DA:76,113
DA:77,113
DA:78,113
DA:79,113
DA:80,113
DA:81,113
DA:83,122
DA:84,0
DA:88,122
DA:89,123
DA:96,3537
DA:97,3537
DA:98,3537
DA:99,3537
DA:103,967
DA:104,793
DA:105,967
DA:172,967
DA:176,660
DA:177,962
DA:178,660
DA:184,113
DA:185,113
DA:186,4
DA:187,42
DA:188,2
DA:189,2
DA:190,62
DA:191,1
DA:192,0
DA:193,0
DA:194,0
DA:195,0
DA:196,0
DA:198,0
DA:201,113
DA:205,4
DA:209,4
DA:210,4
DA:211,4
DA:212,4
DA:213,4
DA:215,4
DA:216,4
DA:218,4
DA:220,2
DA:221,2
DA:223,2
DA:224,2
DA:225,2
DA:226,2
DA:227,2
DA:228,2
DA:229,2
DA:232,2
DA:233,2
DA:234,2
DA:235,2
DA:236,2
DA:238,4
DA:240,4
DA:241,4
DA:242,4
DA:243,4
DA:244,10
DA:245,4
DA:246,4
DA:247,4
DA:249,2
DA:250,2
DA:251,2
DA:252,1
DA:253,1
DA:256,1
DA:257,1
DA:258,2
DA:259,2
DA:261,2
DA:262,2
DA:263,2
DA:264,2
DA:265,2
DA:266,2
DA:267,2
DA:268,2
DA:269,2
DA:270,1
DA:271,1
DA:272,2
DA:276,42
DA:281,42
DA:282,42
DA:283,42
DA:284,42
DA:285,42
DA:287,42
DA:288,42
DA:290,179
DA:291,179
DA:292,1
DA:293,42
DA:294,42
DA:295,42
DA:296,42
DA:297,6
DA:298,6
DA:299,6
DA:300,6
DA:302,82
DA:303,82
DA:304,82
DA:305,82
DA:307,0
DA:308,0
DA:312,42
DA:313,42
DA:314,42
DA:315,42
DA:316,42
DA:317,42
DA:318,42
DA:320,82
DA:322,82
DA:323,82
DA:324,82
DA:325,82
DA:326,82
DA:327,21
DA:328,12
DA:329,27
DA:330,9
DA:331,11
DA:332,11
DA:333,11
DA:334,1
DA:335,1
DA:336,0
DA:337,0
DA:338,0
DA:339,0
DA:340,0
DA:342,0
DA:345,82
DA:347,22
DA:349,22
DA:350,22
DA:351,22
DA:352,22
DA:353,22
DA:354,22
DA:356,22
DA:359,22
DA:360,22
DA:361,22
DA:362,22
DA:363,22
DA:364,22
DA:365,21
DA:366,6
DA:367,6
DA:368,1
DA:369,0
DA:371,22
DA:373,12
DA:375,12
DA:376,12
DA:377,22
DA:378,12
DA:379,12
DA:380,12
DA:382,49
DA:384,49
DA:385,49
DA:386,49
DA:387,49
DA:388,49
DA:389,48
DA:391,1
DA:392,1
DA:393,1
DA:394,1
DA:395,1
DA:397,0
DA:399,49
DA:403,27
DA:405,27
DA:406,27
DA:407,27
DA:408,27
DA:409,27
DA:411,81
DA:412,81
DA:413,0
DA:414,27
DA:415,27
DA:417,52
DA:418,52
DA:419,52
DA:420,52
DA:421,52
DA:424,0
DA:425,0
DA:429,27
DA:430,27
DA:431,27
DA:432,27
DA:433,27
DA:434,27
DA:436,52
DA:438,52
DA:439,52
DA:440,52
DA:441,52
DA:442,52
DA:445,19
DA:446,19
DA:447,19
DA:448,19
DA:449,19
DA:450,19
DA:451,19
DA:452,19
DA:453,19
DA:455,27
DA:456,4
DA:457,1
DA:458,1
DA:459,0
DA:460,0
DA:461,0
DA:462,0
DA:463,0
DA:465,0
DA:468,52
DA:470,29
DA:472,29
DA:473,29
DA:474,29
DA:475,29
DA:477,65
DA:478,65
DA:481,29
DA:482,29
DA:483,29
DA:484,29
DA:485,28
DA:486,10
DA:487,1
DA:488,0
DA:490,29
DA:492,18
DA:493,18
DA:494,18
DA:495,18
DA:496,18
DA:497,0
DA:498,0
DA:502,29
DA:503,29
DA:504,29
DA:505,29
DA:506,29
DA:507,29
DA:509,5
DA:511,5
DA:512,5
DA:513,5
DA:515,10
DA:516,10
DA:519,5
DA:520,5
DA:521,5
DA:522,5
DA:523,2
DA:524,1
DA:525,0
DA:526,0
DA:527,0
DA:529,5
DA:531,5
DA:532,5
DA:533,5
DA:534,0
DA:535,0
DA:539,5
DA:540,5
DA:541,5
DA:542,5
DA:543,5
DA:544,5
DA:546,5
DA:548,5
DA:549,5
DA:550,5
DA:551,5
DA:552,5
DA:556,2
DA:557,2
DA:558,2
DA:559,4
DA:560,2
DA:561,2
DA:563,2
DA:564,2
DA:566,2
DA:567,2
DA:568,2
DA:569,2
DA:570,2
DA:571,2
DA:572,0
DA:573,2
DA:575,2
DA:578,3
DA:579,3
DA:581,0
DA:583,5
DA:587,12
DA:589,12
DA:590,12
DA:591,12
DA:592,12
DA:593,12
DA:595,60
DA:596,60
DA:599,12
DA:600,12
DA:601,12
DA:602,1
DA:603,0
DA:606,12
DA:607,12
DA:608,12
DA:609,12
DA:610,24
DA:611,24
DA:612,24
DA:613,24
DA:614,0
DA:615,0
DA:619,12
DA:620,12
DA:621,12
DA:622,12
DA:623,12
DA:624,12
DA:625,12
DA:626,12
DA:627,12
DA:628,12
DA:632,11
DA:634,11
DA:635,11
DA:636,11
DA:637,11
DA:638,19
DA:639,11
DA:640,11
DA:642,19
DA:644,19
DA:645,19
DA:646,19
DA:647,19
DA:648,19
DA:649,20
DA:650,20
DA:651,20
DA:652,20
DA:653,19
DA:654,19
DA:655,19
DA:659,2
DA:661,2
DA:662,2
DA:663,2
DA:664,2
DA:665,2
DA:666,2
DA:667,3
DA:668,3
DA:669,1
DA:670,2
DA:671,0
DA:674,2
DA:675,2
DA:676,2
DA:677,2
DA:678,2
DA:679,2
DA:681,1
DA:682,1
DA:683,1
DA:684,1
DA:685,1
DA:686,1
DA:688,1
DA:690,1
DA:691,1
DA:692,1
DA:693,1
DA:694,1
DA:695,1
DA:696,1
DA:698,2
DA:699,2
DA:700,3
DA:701,2
DA:702,2
DA:703,2
DA:705,3
DA:707,3
DA:708,3
DA:709,3
DA:710,3
DA:711,3
DA:712,3
DA:713,3
DA:714,3
DA:715,3
DA:716,3
DA:718,17
DA:720,17
DA:721,17
DA:722,18
DA:723,18
DA:724,17
DA:725,17
DA:726,16
DA:728,1
DA:730,17
DA:732,18
DA:734,18
DA:735,18
DA:736,14
DA:739,1
DA:740,1
DA:741,1
DA:742,1
DA:743,1
DA:746,1
DA:747,1
DA:748,1
DA:749,1
DA:750,1
DA:751,1
DA:752,1
DA:753,1
DA:756,1
DA:757,1
DA:758,1
DA:759,1
DA:760,1
DA:762,0
DA:765,1
DA:766,1
DA:767,1
DA:768,1
DA:769,1
DA:770,1
DA:771,0
DA:772,0
DA:773,0
DA:774,0
DA:775,0
DA:776,1
DA:777,1
DA:779,0
DA:781,18
DA:783,14
DA:786,14
DA:787,14
DA:788,14
DA:789,5
DA:790,5
DA:791,4
DA:792,0
DA:793,0
DA:795,14
DA:799,65
DA:801,65
DA:802,65
DA:803,65
DA:804,65
DA:806,65
DA:807,65
DA:808,5
DA:809,5
DA:810,5
DA:812,60
DA:815,65
DA:816,65
DA:817,65
DA:818,65
DA:819,65
DA:820,65
DA:821,65
DA:823,2
DA:825,2
DA:826,2
DA:827,2
DA:828,2
DA:830,2
DA:831,2
DA:832,2
DA:834,6
DA:835,6
DA:836,2
DA:837,2
DA:838,2
DA:839,2
DA:840,2
DA:841,2
DA:842,0
DA:846,2
DA:847,2
DA:848,2
DA:849,2
DA:850,2
DA:851,2
DA:852,2
DA:854,2
DA:855,2
DA:856,3
DA:857,2
DA:858,2
DA:859,2
DA:861,3
DA:863,3
DA:864,3
DA:865,3
DA:866,3
DA:867,3
DA:868,3
DA:869,3
DA:870,3
DA:871,3
DA:872,3
DA:876,1
DA:878,1
DA:879,1
DA:880,1
DA:881,1
DA:882,1
DA:883,1
DA:884,1
DA:885,1
DA:886,1
DA:887,1
DA:889,1
DA:891,1
DA:892,1
DA:893,1
DA:894,0
DA:895,0
DA:896,0
DA:897,0
DA:898,0
DA:899,0
DA:901,1
DA:903,1
DA:905,1
DA:907,1
DA:908,1
DA:909,1
DA:910,1
DA:911,1
DA:912,1
DA:914,0
DA:915,0
DA:916,0
DA:918,0
DA:920,1
DA:926,245
DA:928,245
DA:929,245
DA:930,245
DA:932,245
DA:935,245
DA:936,245
DA:937,245
DA:938,245
DA:939,245
DA:941,245
DA:942,1
DA:943,1
DA:944,1
DA:945,1
DA:946,1
DA:947,1
DA:948,1
DA:950,244
DA:952,245
DA:954,246
DA:956,246
DA:957,246
DA:958,246
DA:959,246
DA:961,1
DA:962,1
DA:963,0
DA:964,1
DA:966,246
DA:968,247
DA:970,247
DA:971,247
DA:972,247
DA:973,247
DA:975,2
DA:976,2
DA:977,0
DA:978,2
DA:980,247
DA:982,249
DA:984,249
DA:985,249
DA:986,249
DA:987,249
DA:989,6
DA:990,6
DA:991,1
DA:992,0
DA:993,6
DA:995,249
DA:997,255
DA:999,255
DA:1000,255
DA:1001,255
DA:1002,255
DA:1004,13
DA:1005,13
DA:1006,12
DA:1007,11
DA:1008,8
DA:1009,1
DA:1010,0
DA:1011,13
DA:1013,255
DA:1015,268
DA:1017,268
DA:1018,268
DA:1019,268
DA:1020,268
DA:1022,270
DA:1023,270
DA:1024,268
DA:1025,268
DA:1026,268
DA:1027,268
DA:1028,1
DA:1029,1
DA:1030,1
DA:1031,1
DA:1032,1
DA:1033,0
DA:1034,0
DA:1038,268
DA:1039,268
DA:1040,1
DA:1041,1
DA:1042,1
DA:1043,1
DA:1045,267
DA:1047,268
DA:1049,268
DA:1051,268
DA:1052,268
DA:1053,268
DA:1054,268
DA:1055,268
DA:1058,14
DA:1059,14
DA:1060,30
DA:1061,14
DA:1062,14
DA:1063,14
DA:1064,14
DA:1065,14
DA:1066,14
DA:1067,1
DA:1068,1
DA:1069,1
DA:1070,14
DA:1073,2
DA:1074,2
DA:1075,6
DA:1076,2
DA:1077,2
DA:1078,2
DA:1079,2
DA:1080,2
DA:1081,2
DA:1082,1
DA:1083,1
DA:1084,1
DA:1085,2
DA:1088,10
DA:1089,10
DA:1090,20
DA:1091,10
DA:1092,10
DA:1093,10
DA:1094,10
DA:1095,10
DA:1098,1
DA:1099,1
DA:1100,2
DA:1101,1
DA:1102,1
DA:1103,1
DA:1104,1
DA:1105,1
DA:1108,1
DA:1109,1
DA:1110,3
DA:1111,1
DA:1112,1
DA:1113,1
DA:1114,1
DA:1115,1
DA:1116,1
DA:1117,1
DA:1118,1
DA:1121,1
DA:1122,1
DA:1123,3
DA:1124,1
DA:1125,1
DA:1126,1
DA:1127,1
DA:1128,1
DA:1129,1
DA:1130,1
DA:1131,1
DA:1133,239
DA:1134,0
DA:1136,268
DA:1138,239
DA:1139,239
DA:1140,239
DA:1141,239
DA:1142,239
DA:1144,4
DA:1145,4
DA:1146,1
DA:1147,0
DA:1148,4
DA:1150,239
DA:1152,243
DA:1153,243
DA:1154,243
DA:1155,243
DA:1156,243
DA:1158,3
DA:1159,3
DA:1160,2
DA:1161,1
DA:1162,0
DA:1163,3
DA:1165,243
DA:1167,248
DA:1169,248
DA:1170,248
DA:1171,248
DA:1173,2
DA:1174,2
DA:1175,2
DA:1176,1
DA:1177,0
DA:1179,2
DA:1180,2
DA:1181,2
DA:1182,2
DA:1183,2
DA:1184,2
DA:1186,246
DA:1187,0
DA:1189,248
DA:1191,246
DA:1193,246
DA:1194,246
DA:1195,246
DA:1196,246
DA:1198,246
DA:1199,11
DA:1201,11
DA:1202,11
DA:1203,11
DA:1204,11
DA:1205,11
DA:1208,2
DA:1209,2
DA:1210,2
DA:1211,2
DA:1213,2
DA:1215,1
DA:1216,1
DA:1217,1
DA:1218,1
DA:1219,1
DA:1220,1
DA:1221,1
DA:1222,1
DA:1223,1
DA:1226,1
DA:1227,1
DA:1228,1
DA:1229,1
DA:1230,1
DA:1231,1
DA:1232,1
DA:1237,2
DA:1238,2
DA:1239,2
DA:1240,2
DA:1241,2
DA:1242,2
DA:1243,2
DA:1244,2
DA:1248,2
DA:1249,2
DA:1250,2
DA:1251,2
DA:1252,2
DA:1253,2
DA:1254,2
DA:1255,2
DA:1256,2
DA:1257,2
DA:1258,2
DA:1259,2
DA:1260,2
DA:1265,5
DA:1266,5
DA:1267,5
DA:1268,5
DA:1269,5
DA:1270,5
DA:1271,5
DA:1272,5
DA:1273,5
DA:1274,5
DA:1275,5
DA:1276,5
DA:1277,5
DA:1278,5
DA:1281,0
DA:1285,246
DA:1286,246
DA:1288,5
DA:1290,5
DA:1291,5
DA:1292,5
DA:1293,5
DA:1294,5
DA:1295,5
DA:1296,3
DA:1297,2
DA:1298,1
DA:1299,0
DA:1301,5
DA:1303,3
DA:1305,3
DA:1306,3
DA:1307,3
DA:1308,3
DA:1309,3
DA:1311,3
DA:1313,3
DA:1314,3
DA:1315,3
DA:1317,0
DA:1318,0
DA:1319,0
DA:1320,0
DA:1321,0
DA:1322,0
DA:1323,0
DA:1326,3
DA:1327,3
DA:1328,3
DA:1329,3
DA:1330,3
DA:1332,3
DA:1334,246
DA:1335,246
DA:1336,246
DA:1337,144
DA:1340,6
DA:1341,6
DA:1342,6
DA:1343,6
DA:1344,6
DA:1346,11
DA:1347,4
DA:1348,1
DA:1350,3
DA:1351,3
DA:1352,8
DA:1353,8
DA:1354,3
DA:1355,3
DA:1358,4
DA:1359,4
DA:1360,4
DA:1361,4
DA:1362,3
DA:1363,3
DA:1364,3
DA:1365,3
DA:1366,1
DA:1368,2
DA:1370,3
DA:1371,3
DA:1372,3
DA:1373,3
DA:1374,3
DA:1375,3
DA:1376,3
DA:1377,4
DA:1378,4
DA:1380,2
DA:1382,0
DA:1383,0
DA:1384,0
DA:1385,0
DA:1386,0
DA:1388,71
DA:1389,0
DA:1391,246
DA:1395,11
DA:1397,11
DA:1398,11
DA:1399,11
DA:1401,38
DA:1402,38
DA:1403,11
DA:1404,11
DA:1405,11
DA:1406,11
DA:1407,11
DA:1408,16
DA:1409,0
DA:1410,0
DA:1414,11
DA:1415,11
DA:1416,11
DA:1417,11
DA:1418,11
DA:1420,16
DA:1422,16
DA:1423,16
DA:1424,16
DA:1425,16
DA:1426,16
DA:1427,16
DA:1428,16
DA:1429,16
DA:1430,16
DA:1431,16
DA:1432,16
DA:1433,16
DA:1435,16
DA:1436,16
DA:1437,16
DA:1438,16
DA:1439,16
DA:1440,16
DA:1441,1
DA:1442,4
DA:1443,11
DA:1444,0
DA:1446,16
DA:1448,4
DA:1449,4
DA:1450,7
DA:1451,7
DA:1452,4
DA:1453,4
DA:1455,7
DA:1456,7
DA:1457,7
DA:1458,7
DA:1459,7
DA:1460,7
DA:1461,2
DA:1462,1
DA:1463,1
DA:1464,3
DA:1465,0
DA:1467,7
DA:1471,4
DA:1473,4
DA:1474,4
DA:1475,4
DA:1476,4
DA:1478,12
DA:1479,12
DA:1482,4
DA:1483,4
DA:1484,4
DA:1485,3
DA:1486,2
DA:1487,1
DA:1488,0
DA:1491,4
DA:1492,4
DA:1493,4
DA:1494,4
DA:1495,4
DA:1496,4
DA:1497,4
DA:1498,0
DA:1499,0
DA:1503,4
DA:1504,4
DA:1505,4
DA:1506,4
DA:1507,4
DA:1508,4
DA:1510,1
DA:1512,1
DA:1513,1
DA:1514,1
DA:1516,3
DA:1517,3
DA:1518,1
DA:1519,1
DA:1520,1
DA:1521,1
DA:1522,1
DA:1523,1
DA:1524,1
DA:1525,1
DA:1526,0
DA:1530,1
DA:1531,1
DA:1532,1
DA:1533,1
DA:1534,1
DA:1538,7
DA:1540,7
DA:1541,7
DA:1542,7
DA:1543,7
DA:1544,7
DA:1547,6
DA:1548,6
DA:1549,6
DA:1550,6
DA:1551,6
DA:1552,6
DA:1553,6
DA:1554,6
DA:1555,6
DA:1559,1
DA:1560,1
DA:1561,1
DA:1562,1
DA:1563,2
DA:1564,1
DA:1565,1
DA:1566,1
DA:1567,1
DA:1568,1
DA:1569,1
DA:1570,1
DA:1571,1
DA:1573,0
DA:1575,7
DA:1577,2
DA:1579,2
DA:1580,2
DA:1581,2
DA:1582,2
DA:1583,2
DA:1584,2
DA:1585,2
DA:1586,2
DA:1587,2
DA:1588,2
DA:1592,18
DA:1594,18
DA:1595,18
DA:1596,18
DA:1598,18
DA:1600,18
DA:1601,18
DA:1602,19
DA:1603,19
DA:1604,18
DA:1605,18
DA:1606,17
DA:1608,1
DA:1610,18
DA:1612,19
DA:1614,19
DA:1615,19
DA:1616,19
DA:1617,19
DA:1618,19
DA:1621,0
DA:1622,0
DA:1623,0
DA:1624,0
DA:1625,0
DA:1626,0
DA:1627,0
DA:1628,0
DA:1629,0
DA:1630,0
DA:1631,0
DA:1632,0
DA:1633,0
DA:1634,0
DA:1635,0
DA:1636,0
DA:1637,0
DA:1640,0
DA:1641,0
DA:1642,0
DA:1643,0
DA:1644,0
DA:1645,0
DA:1647,19
DA:1648,0
DA:1650,19
DA:1652,19
DA:1653,19
DA:1654,19
DA:1656,19
DA:1657,10
DA:1658,10
DA:1659,0
DA:1660,0
DA:1661,9
DA:1663,9
DA:1664,9
DA:1665,7
DA:1667,0
DA:1668,0
DA:1669,0
DA:1670,0
DA:1671,0
DA:1672,0
DA:1673,0
DA:1674,0
DA:1675,0
DA:1676,0
DA:1678,0
DA:1680,0
DA:1681,0
DA:1682,0
DA:1683,0
DA:1684,0
DA:1685,0
DA:1687,0
DA:1688,0
DA:1689,0
DA:1690,0
DA:1694,1
DA:1695,1
DA:1696,1
DA:1697,2
DA:1698,2
DA:1699,1
DA:1700,1
DA:1703,0
DA:1704,0
DA:1706,0
DA:1709,1
DA:1710,0
DA:1712,19
DA:1714,0
DA:1715,0
DA:1716,0
DA:1718,0
DA:1719,0
DA:1720,0
DA:1722,0
DA:1723,0
DA:1724,0
DA:1725,0
DA:1726,0
DA:1727,0
DA:1728,0
DA:1729,0
DA:1730,0
DA:1731,0
DA:1733,0
DA:1736,0
DA:1737,0
DA:1739,0
DA:1743,152
DA:1745,152
DA:1746,152
DA:1747,47
DA:1748,51
DA:1749,1
DA:1750,16
DA:1751,35
DA:1753,1
DA:1754,1
DA:1756,1
DA:1757,0
DA:1759,152
DA:1761,16
DA:1762,16
DA:1763,1
DA:1764,1
DA:1765,1
DA:1766,1
DA:1767,15
DA:1768,0
DA:1769,0
DA:1770,0
DA:1771,0
DA:1772,15
DA:1773,12
DA:1774,12
DA:1775,12
DA:1776,12
DA:1777,3
DA:1778,2
DA:1779,2
DA:1780,2
DA:1781,2
DA:1782,1
DA:1783,1
DA:1784,1
DA:1785,1
DA:1786,1
DA:1788,0
DA:1790,16
DA:1793,37
DA:1794,37
DA:1795,37
DA:1797,0
DA:1799,37
DA:1801,144
DA:1802,144
DA:1803,144
DA:1804,144
DA:1805,152
DA:1806,144
DA:1807,144
DA:1808,144
DA:1815,1479
DA:1816,1479
DA:1817,1479
DA:1818,1479
DA:1819,1479
DA:1820,1479
DA:1821,1479
DA:1822,1479
DA:1823,1479
DA:1824,1479
DA:1826,1479
DA:1827,1479
DA:1828,1479
DA:1829,1479
DA:1831,1508
DA:1832,29
DA:1833,0
DA:1836,0
DA:1838,29
DA:1839,29
DA:1841,29
DA:1842,29
DA:1843,29
DA:1844,29
DA:1845,29
DA:1846,29
DA:1847,29
DA:1848,29
DA:1849,29
DA:1850,29
DA:1851,29
DA:1852,29
DA:1853,29
DA:1857,1479
DA:1858,1479
DA:1869,1
DA:1870,1
DA:1871,1
DA:1872,1
DA:1875,1
DA:1876,1
DA:1877,1
DA:1878,1
DA:1881,1
DA:1882,1
DA:1883,1
DA:1884,1
BRF:0
BRH:0
LF:1367
LH:1181
end_of_record
SF:/home/scott/Projects/AgentProof/aegis-compiler/src/types/mod.rs
FN:64,_RNvMNtCs6BFVBPdMni0_14aegis_compiler5typesNtB2_2Ty10is_numeric
FN:79,_RNvMNtCs6BFVBPdMni0_14aegis_compiler5typesNtB2_2Ty11is_duration
FN:92,_RNvMNtCs6BFVBPdMni0_14aegis_compiler5typesNtB2_2Ty12element_type
FN:87,_RNvMNtCs6BFVBPdMni0_14aegis_compiler5typesNtB2_2Ty13is_collection
FN:107,_RNvMNtCs6BFVBPdMni0_14aegis_compiler5typesNtB2_2Ty13is_subtype_of
FN:71,_RNvMNtCs6BFVBPdMni0_14aegis_compiler5typesNtB2_2Ty7is_bool
FN:83,_RNvMNtCs6BFVBPdMni0_14aegis_compiler5typesNtB2_2Ty8is_error
FN:75,_RNvMNtCs6BFVBPdMni0_14aegis_compiler5typesNtB2_2Ty9is_string
FN:189,_RNvMs1_NtCs6BFVBPdMni0_14aegis_compiler5typesNtB5_5Scope3new
FN:252,_RNvMs3_NtCs6BFVBPdMni0_14aegis_compiler5typesNtB5_7TypeEnv10push_scope
FN:299,_RNvMs3_NtCs6BFVBPdMni0_14aegis_compiler5typesNtB5_7TypeEnv11define_type
FN:276,_RNvMs3_NtCs6BFVBPdMni0_14aegis_compiler5typesNtB5_7TypeEnv11lookup_type
FN:307,_RNvMs3_NtCs6BFVBPdMni0_14aegis_compiler5typesNtB5_7TypeEnv14fresh_type_var
FN:266,_RNvMs3_NtCs6BFVBPdMni0_14aegis_compiler5typesNtB5_7TypeEnv14lookup_binding
FN:303,_RNvMs3_NtCs6BFVBPdMni0_14aegis_compiler5typesNtB5_7TypeEnv15define_function
FN:286,_RNvMs3_NtCs6BFVBPdMni0_14aegis_compiler5typesNtB5_7TypeEnv15lookup_function
FN:261,_RNvMs3_NtCs6BFVBPdMni0_14aegis_compiler5typesNtB5_7TypeEnv17current_scope_mut
FN:221,_RNvMs3_NtCs6BFVBPdMni0_14aegis_compiler5typesNtB5_7TypeEnv17register_builtins
FN:211,_RNvMs3_NtCs6BFVBPdMni0_14aegis_compiler5typesNtB5_7TypeEnv3new
FN:295,_RNvMs3_NtCs6BFVBPdMni0_14aegis_compiler5typesNtB5_7TypeEnv4bind
FN:256,_RNvMs3_NtCs6BFVBPdMni0_14aegis_compiler5typesNtB5_7TypeEnv9pop_scope
FN:183,_RNvXs0_NtCs6BFVBPdMni0_14aegis_compiler5typesNtB5_5ScopeNtNtCsbNKrcpplAYV_4core7default7Default7default
FN:205,_RNvXs2_NtCs6BFVBPdMni0_14aegis_compiler5typesNtB5_7TypeEnvNtNtCsbNKrcpplAYV_4core7default7Default7default
FN:130,_RNvXs_NtCs6BFVBPdMni0_14aegis_compiler5typesNtB4_2TyNtNtCsbNKrcpplAYV_4core3fmt7Display3fmt
FN:119,_RNCNvMNtCs6BFVBPdMni0_14aegis_compiler5typesNtB4_2Ty13is_subtype_of0B6_
FN:144,_RNCNvXs_NtCs6BFVBPdMni0_14aegis_compiler5typesNtB6_2TyNtNtCsbNKrcpplAYV_4core3fmt7Display3fmt0B8_
FN:148,_RNCNvXs_NtCs6BFVBPdMni0_14aegis_compiler5typesNtB6_2TyNtNtCsbNKrcpplAYV_4core3fmt7Display3fmts_0B8_
FN:183,_RNvXs0_NtCsjN0pppA1BUl_14aegis_compiler5typesNtB5_5ScopeNtNtCsbNKrcpplAYV_4core7default7Default7default
FN:205,_RNvXs2_NtCsjN0pppA1BUl_14aegis_compiler5typesNtB5_7TypeEnvNtNtCsbNKrcpplAYV_4core7default7Default7default
FN:331,_RNvNtNtCsjN0pppA1BUl_14aegis_compiler5types5tests11duration_ty
FN:319,_RNvNtNtCsjN0pppA1BUl_14aegis_compiler5types5tests3int
FN:322,_RNvNtNtCsjN0pppA1BUl_14aegis_compiler5types5tests5float
FN:325,_RNvNtNtCsjN0pppA1BUl_14aegis_compiler5types5tests7bool_ty
FN:328,_RNvNtNtCsjN0pppA1BUl_14aegis_compiler5types5tests9string_ty
FN:347,_RNvNtNtCsjN0pppA1BUl_14aegis_compiler5types5testss_21is_bool_for_bool_only
FN:460,_RNvNtNtCsjN0pppA1BUl_14aegis_compiler5types5testss_21subtype_set_covariant
FN:555,_RNvNtNtCsjN0pppA1BUl_14aegis_compiler5types5testss_22define_and_lookup_type
FN:453,_RNvNtNtCsjN0pppA1BUl_14aegis_compiler5types5testss_22subtype_list_covariant
FN:438,_RNvNtNtCsjN0pppA1BUl_14aegis_compiler5types5testss_23subtype_member_of_union
FN:354,_RNvNtNtCsjN0pppA1BUl_14aegis_compiler5types5testss_25is_string_for_string_only
FN:562,_RNvNtNtCsjN0pppA1BUl_14aegis_compiler5types5testss_26define_and_lookup_function
FN:575,_RNvNtNtCsjN0pppA1BUl_14aegis_compiler5types5testss_28fresh_type_vars_are_distinct
FN:415,_RNvNtNtCsjN0pppA1BUl_14aegis_compiler5types5testss_28subtype_never_is_bottom_type
FN:511,_RNvNtNtCsjN0pppA1BUl_14aegis_compiler5types5testss_29bind_and_lookup_in_same_scope
FN:376,_RNvNtNtCsjN0pppA1BUl_14aegis_compiler5types5testss_29element_type_for_list_and_set
FN:361,_RNvNtNtCsjN0pppA1BUl_14aegis_compiler5types5testss_29is_duration_for_duration_only
FN:390,_RNvNtNtCsjN0pppA1BUl_14aegis_compiler5types5testss_31is_error_only_for_error_variant
FN:474,_RNvNtNtCsjN0pppA1BUl_14aegis_compiler5types5testss_31subtype_list_not_subtype_of_set
FN:592,_RNvNtNtCsjN0pppA1BUl_14aegis_compiler5types5testss_31type_ids_increment_sequentially
FN:586,_RNvNtNtCsjN0pppA1BUl_14aegis_compiler5types5testss_32fresh_type_vars_are_var_variants
FN:499,_RNvNtNtCsjN0pppA1BUl_14aegis_compiler5types5testss_32lookup_missing_type_returns_none
FN:527,_RNvNtNtCsjN0pppA1BUl_14aegis_compiler5types5testss_32pop_scope_restores_outer_binding
FN:399,_RNvNtNtCsjN0pppA1BUl_14aegis_compiler5types5testss_32subtype_reflexive_for_primitives
FN:518,_RNvNtNtCsjN0pppA1BUl_14aegis_compiler5types5testss_33inner_scope_shadows_outer_binding
FN:338,_RNvNtNtCsjN0pppA1BUl_14aegis_compiler5types5testss_33is_numeric_for_int_and_float_only
FN:537,_RNvNtNtCsjN0pppA1BUl_14aegis_compiler5types5testss_34inner_scope_can_see_outer_bindings
FN:493,_RNvNtNtCsjN0pppA1BUl_14aegis_compiler5types5testss_35lookup_missing_binding_returns_none
FN:505,_RNvNtNtCsjN0pppA1BUl_14aegis_compiler5types5testss_36lookup_missing_function_returns_none
FN:466,_RNvNtNtCsjN0pppA1BUl_14aegis_compiler5types5testss_36subtype_map_covariant_in_both_params
FN:368,_RNvNtNtCsjN0pppA1BUl_14aegis_compiler5types5testss_38is_collection_for_list_and_set_not_map
FN:481,_RNvNtNtCsjN0pppA1BUl_14aegis_compiler5types5testss_38new_env_contains_builtin_event_binding
FN:546,_RNvNtNtCsjN0pppA1BUl_14aegis_compiler5types5testss_38popped_scope_binding_no_longer_visible
FN:487,_RNvNtNtCsjN0pppA1BUl_14aegis_compiler5types5testss_39new_env_contains_builtin_policy_binding
FN:424,_RNvNtNtCsjN0pppA1BUl_14aegis_compiler5types5testss_39subtype_int_widens_to_float_not_reverse
FN:430,_RNvNtNtCsjN0pppA1BUl_14aegis_compiler5types5testss_41subtype_unrelated_primitives_incompatible
FN:407,_RNvNtNtCsjN0pppA1BUl_14aegis_compiler5types5testss_50subtype_error_suppresses_cascading_both_directions
FN:446,_RNvNtNtCsjN0pppA1BUl_14aegis_compiler5types5testss_50subtype_int_in_union_containing_float_via_widening
FN:64,_RNvMNtCsjN0pppA1BUl_14aegis_compiler5typesNtB2_2Ty10is_numeric
FN:79,_RNvMNtCsjN0pppA1BUl_14aegis_compiler5typesNtB2_2Ty11is_duration
FN:92,_RNvMNtCsjN0pppA1BUl_14aegis_compiler5typesNtB2_2Ty12element_type
FN:87,_RNvMNtCsjN0pppA1BUl_14aegis_compiler5typesNtB2_2Ty13is_collection
FN:107,_RNvMNtCsjN0pppA1BUl_14aegis_compiler5typesNtB2_2Ty13is_subtype_of
FN:71,_RNvMNtCsjN0pppA1BUl_14aegis_compiler5typesNtB2_2Ty7is_bool
FN:83,_RNvMNtCsjN0pppA1BUl_14aegis_compiler5typesNtB2_2Ty8is_error
FN:75,_RNvMNtCsjN0pppA1BUl_14aegis_compiler5typesNtB2_2Ty9is_string
FN:189,_RNvMs1_NtCsjN0pppA1BUl_14aegis_compiler5typesNtB5_5Scope3new
FN:252,_RNvMs3_NtCsjN0pppA1BUl_14aegis_compiler5typesNtB5_7TypeEnv10push_scope
FN:299,_RNvMs3_NtCsjN0pppA1BUl_14aegis_compiler5typesNtB5_7TypeEnv11define_type
FN:276,_RNvMs3_NtCsjN0pppA1BUl_14aegis_compiler5typesNtB5_7TypeEnv11lookup_type
FN:307,_RNvMs3_NtCsjN0pppA1BUl_14aegis_compiler5typesNtB5_7TypeEnv14fresh_type_var
FN:266,_RNvMs3_NtCsjN0pppA1BUl_14aegis_compiler5typesNtB5_7TypeEnv14lookup_binding
FN:303,_RNvMs3_NtCsjN0pppA1BUl_14aegis_compiler5typesNtB5_7TypeEnv15define_function
FN:286,_RNvMs3_NtCsjN0pppA1BUl_14aegis_compiler5typesNtB5_7TypeEnv15lookup_function
FN:261,_RNvMs3_NtCsjN0pppA1BUl_14aegis_compiler5typesNtB5_7TypeEnv17current_scope_mut
FN:221,_RNvMs3_NtCsjN0pppA1BUl_14aegis_compiler5typesNtB5_7TypeEnv17register_builtins
FN:211,_RNvMs3_NtCsjN0pppA1BUl_14aegis_compiler5typesNtB5_7TypeEnv3new
FN:295,_RNvMs3_NtCsjN0pppA1BUl_14aegis_compiler5typesNtB5_7TypeEnv4bind
FN:256,_RNvMs3_NtCsjN0pppA1BUl_14aegis_compiler5typesNtB5_7TypeEnv9pop_scope
FN:130,_RNvXs_NtCsjN0pppA1BUl_14aegis_compiler5typesNtB4_2TyNtNtCsbNKrcpplAYV_4core3fmt7Display3fmt
FN:119,_RNCNvMNtCsjN0pppA1BUl_14aegis_compiler5typesNtB4_2Ty13is_subtype_of0B6_
FN:144,_RNCNvXs_NtCsjN0pppA1BUl_14aegis_compiler5typesNtB6_2TyNtNtCsbNKrcpplAYV_4core3fmt7Display3fmt0B8_
FN:148,_RNCNvXs_NtCsjN0pppA1BUl_14aegis_compiler5typesNtB6_2TyNtNtCsbNKrcpplAYV_4core3fmt7Display3fmts_0B8_
FNDA:20,_RNvMNtCs6BFVBPdMni0_14aegis_compiler5typesNtB2_2Ty10is_numeric
FNDA:18,_RNvMNtCs6BFVBPdMni0_14aegis_compiler5typesNtB2_2Ty11is_duration
FNDA:2,_RNvMNtCs6BFVBPdMni0_14aegis_compiler5typesNtB2_2Ty12element_type
FNDA:3,_RNvMNtCs6BFVBPdMni0_14aegis_compiler5typesNtB2_2Ty13is_collection
FNDA:6,_RNvMNtCs6BFVBPdMni0_14aegis_compiler5typesNtB2_2Ty13is_subtype_of
FNDA:96,_RNvMNtCs6BFVBPdMni0_14aegis_compiler5typesNtB2_2Ty7is_bool
FNDA:48,_RNvMNtCs6BFVBPdMni0_14aegis_compiler5typesNtB2_2Ty8is_error
FNDA:30,_RNvMNtCs6BFVBPdMni0_14aegis_compiler5typesNtB2_2Ty9is_string
FNDA:193,_RNvMs1_NtCs6BFVBPdMni0_14aegis_compiler5typesNtB5_5Scope3new
FNDA:119,_RNvMs3_NtCs6BFVBPdMni0_14aegis_compiler5typesNtB5_7TypeEnv10push_scope
FNDA:66,_RNvMs3_NtCs6BFVBPdMni0_14aegis_compiler5typesNtB5_7TypeEnv11define_type
FNDA:10,_RNvMs3_NtCs6BFVBPdMni0_14aegis_compiler5typesNtB5_7TypeEnv11lookup_type
FNDA:1,_RNvMs3_NtCs6BFVBPdMni0_14aegis_compiler5typesNtB5_7TypeEnv14fresh_type_var
FNDA:2,_RNvMs3_NtCs6BFVBPdMni0_14aegis_compiler5typesNtB5_7TypeEnv14lookup_binding
FNDA:4,_RNvMs3_NtCs6BFVBPdMni0_14aegis_compiler5typesNtB5_7TypeEnv15define_function
FNDA:3,_RNvMs3_NtCs6BFVBPdMni0_14aegis_compiler5typesNtB5_7TypeEnv15lookup_function
FNDA:75,_RNvMs3_NtCs6BFVBPdMni0_14aegis_compiler5typesNtB5_7TypeEnv17current_scope_mut
FNDA:74,_RNvMs3_NtCs6BFVBPdMni0_14aegis_compiler5typesNtB5_7TypeEnv17register_builtins
FNDA:74,_RNvMs3_NtCs6BFVBPdMni0_14aegis_compiler5typesNtB5_7TypeEnv3new
FNDA:5,_RNvMs3_NtCs6BFVBPdMni0_14aegis_compiler5typesNtB5_7TypeEnv4bind
FNDA:119,_RNvMs3_NtCs6BFVBPdMni0_14aegis_compiler5typesNtB5_7TypeEnv9pop_scope
FNDA:0,_RNvXs0_NtCs6BFVBPdMni0_14aegis_compiler5typesNtB5_5ScopeNtNtCsbNKrcpplAYV_4core7default7Default7default
FNDA:0,_RNvXs2_NtCs6BFVBPdMni0_14aegis_compiler5typesNtB5_7TypeEnvNtNtCsbNKrcpplAYV_4core7default7Default7default
FNDA:24,_RNvXs_NtCs6BFVBPdMni0_14aegis_compiler5typesNtB4_2TyNtNtCsbNKrcpplAYV_4core3fmt7Display3fmt
FNDA:0,_RNCNvMNtCs6BFVBPdMni0_14aegis_compiler5typesNtB4_2Ty13is_subtype_of0B6_
FNDA:0,_RNCNvXs_NtCs6BFVBPdMni0_14aegis_compiler5typesNtB6_2TyNtNtCsbNKrcpplAYV_4core3fmt7Display3fmt0B8_
FNDA:0,_RNCNvXs_NtCs6BFVBPdMni0_14aegis_compiler5typesNtB6_2TyNtNtCsbNKrcpplAYV_4core3fmt7Display3fmts_0B8_
FNDA:0,_RNvXs0_NtCsjN0pppA1BUl_14aegis_compiler5typesNtB5_5ScopeNtNtCsbNKrcpplAYV_4core7default7Default7default
FNDA:0,_RNvXs2_NtCsjN0pppA1BUl_14aegis_compiler5typesNtB5_7TypeEnvNtNtCsbNKrcpplAYV_4core7default7Default7default
FNDA:2,_RNvNtNtCsjN0pppA1BUl_14aegis_compiler5types5tests11duration_ty
FNDA:41,_RNvNtNtCsjN0pppA1BUl_14aegis_compiler5types5tests3int
FNDA:12,_RNvNtNtCsjN0pppA1BUl_14aegis_compiler5types5tests5float
FNDA:12,_RNvNtNtCsjN0pppA1BUl_14aegis_compiler5types5tests7bool_ty
FNDA:26,_RNvNtNtCsjN0pppA1BUl_14aegis_compiler5types5tests9string_ty
FNDA:1,_RNvNtNtCsjN0pppA1BUl_14aegis_compiler5types5testss_21is_bool_for_bool_only
FNDA:1,_RNvNtNtCsjN0pppA1BUl_14aegis_compiler5types5testss_21subtype_set_covariant
FNDA:1,_RNvNtNtCsjN0pppA1BUl_14aegis_compiler5types5testss_22define_and_lookup_type
FNDA:1,_RNvNtNtCsjN0pppA1BUl_14aegis_compiler5types5testss_22subtype_list_covariant
FNDA:1,_RNvNtNtCsjN0pppA1BUl_14aegis_compiler5types5testss_23subtype_member_of_union
FNDA:1,_RNvNtNtCsjN0pppA1BUl_14aegis_compiler5types5testss_25is_string_for_string_only
FNDA:1,_RNvNtNtCsjN0pppA1BUl_14aegis_compiler5types5testss_26define_and_lookup_function
FNDA:1,_RNvNtNtCsjN0pppA1BUl_14aegis_compiler5types5testss_28fresh_type_vars_are_distinct
FNDA:1,_RNvNtNtCsjN0pppA1BUl_14aegis_compiler5types5testss_28subtype_never_is_bottom_type
FNDA:1,_RNvNtNtCsjN0pppA1BUl_14aegis_compiler5types5testss_29bind_and_lookup_in_same_scope
FNDA:1,_RNvNtNtCsjN0pppA1BUl_14aegis_compiler5types5testss_29element_type_for_list_and_set
FNDA:1,_RNvNtNtCsjN0pppA1BUl_14aegis_compiler5types5testss_29is_duration_for_duration_only
FNDA:1,_RNvNtNtCsjN0pppA1BUl_14aegis_compiler5types5testss_31is_error_only_for_error_variant
FNDA:1,_RNvNtNtCsjN0pppA1BUl_14aegis_compiler5types5testss_31subtype_list_not_subtype_of_set
FNDA:1,_RNvNtNtCsjN0pppA1BUl_14aegis_compiler5types5testss_31type_ids_increment_sequentially
FNDA:1,_RNvNtNtCsjN0pppA1BUl_14aegis_compiler5types5testss_32fresh_type_vars_are_var_variants
FNDA:1,_RNvNtNtCsjN0pppA1BUl_14aegis_compiler5types5testss_32lookup_missing_type_returns_none
FNDA:1,_RNvNtNtCsjN0pppA1BUl_14aegis_compiler5types5testss_32pop_scope_restores_outer_binding
FNDA:1,_RNvNtNtCsjN0pppA1BUl_14aegis_compiler5types5testss_32subtype_reflexive_for_primitives
FNDA:1,_RNvNtNtCsjN0pppA1BUl_14aegis_compiler5types5testss_33inner_scope_shadows_outer_binding
FNDA:1,_RNvNtNtCsjN0pppA1BUl_14aegis_compiler5types5testss_33is_numeric_for_int_and_float_only
FNDA:1,_RNvNtNtCsjN0pppA1BUl_14aegis_compiler5types5testss_34inner_scope_can_see_outer_bindings
FNDA:1,_RNvNtNtCsjN0pppA1BUl_14aegis_compiler5types5testss_35lookup_missing_binding_returns_none
FNDA:1,_RNvNtNtCsjN0pppA1BUl_14aegis_compiler5types5testss_36lookup_missing_function_returns_none
FNDA:1,_RNvNtNtCsjN0pppA1BUl_14aegis_compiler5types5testss_36subtype_map_covariant_in_both_params
FNDA:1,_RNvNtNtCsjN0pppA1BUl_14aegis_compiler5types5testss_38is_collection_for_list_and_set_not_map
FNDA:1,_RNvNtNtCsjN0pppA1BUl_14aegis_compiler5types5testss_38new_env_contains_builtin_event_binding
FNDA:1,_RNvNtNtCsjN0pppA1BUl_14aegis_compiler5types5testss_38popped_scope_binding_no_longer_visible
FNDA:1,_RNvNtNtCsjN0pppA1BUl_14aegis_compiler5types5testss_39new_env_contains_builtin_policy_binding
FNDA:1,_RNvNtNtCsjN0pppA1BUl_14aegis_compiler5types5testss_39subtype_int_widens_to_float_not_reverse
FNDA:1,_RNvNtNtCsjN0pppA1BUl_14aegis_compiler5types5testss_41subtype_unrelated_primitives_incompatible
FNDA:1,_RNvNtNtCsjN0pppA1BUl_14aegis_compiler5types5testss_50subtype_error_suppresses_cascading_both_directions
FNDA:1,_RNvNtNtCsjN0pppA1BUl_14aegis_compiler5types5testss_50subtype_int_in_union_containing_float_via_widening
FNDA:5,_RNvMNtCsjN0pppA1BUl_14aegis_compiler5typesNtB2_2Ty10is_numeric
FNDA:3,_RNvMNtCsjN0pppA1BUl_14aegis_compiler5typesNtB2_2Ty11is_duration
FNDA:4,_RNvMNtCsjN0pppA1BUl_14aegis_compiler5typesNtB2_2Ty12element_type
FNDA:4,_RNvMNtCsjN0pppA1BUl_14aegis_compiler5typesNtB2_2Ty13is_collection
FNDA:43,_RNvMNtCsjN0pppA1BUl_14aegis_compiler5typesNtB2_2Ty13is_subtype_of
FNDA:3,_RNvMNtCsjN0pppA1BUl_14aegis_compiler5typesNtB2_2Ty7is_bool
FNDA:3,_RNvMNtCsjN0pppA1BUl_14aegis_compiler5typesNtB2_2Ty8is_error
FNDA:3,_RNvMNtCsjN0pppA1BUl_14aegis_compiler5typesNtB2_2Ty9is_string
FNDA:19,_RNvMs1_NtCsjN0pppA1BUl_14aegis_compiler5typesNtB5_5Scope3new
FNDA:4,_RNvMs3_NtCsjN0pppA1BUl_14aegis_compiler5typesNtB5_7TypeEnv10push_scope
FNDA:1,_RNvMs3_NtCsjN0pppA1BUl_14aegis_compiler5typesNtB5_7TypeEnv11define_type
FNDA:2,_RNvMs3_NtCsjN0pppA1BUl_14aegis_compiler5typesNtB5_7TypeEnv11lookup_type
FNDA:6,_RNvMs3_NtCsjN0pppA1BUl_14aegis_compiler5typesNtB5_7TypeEnv14fresh_type_var
FNDA:8,_RNvMs3_NtCsjN0pppA1BUl_14aegis_compiler5typesNtB5_7TypeEnv14lookup_binding
FNDA:1,_RNvMs3_NtCsjN0pppA1BUl_14aegis_compiler5typesNtB5_7TypeEnv15define_function
FNDA:2,_RNvMs3_NtCsjN0pppA1BUl_14aegis_compiler5typesNtB5_7TypeEnv15lookup_function
FNDA:9,_RNvMs3_NtCsjN0pppA1BUl_14aegis_compiler5typesNtB5_7TypeEnv17current_scope_mut
FNDA:15,_RNvMs3_NtCsjN0pppA1BUl_14aegis_compiler5typesNtB5_7TypeEnv17register_builtins
FNDA:15,_RNvMs3_NtCsjN0pppA1BUl_14aegis_compiler5typesNtB5_7TypeEnv3new
FNDA:7,_RNvMs3_NtCsjN0pppA1BUl_14aegis_compiler5typesNtB5_7TypeEnv4bind
FNDA:3,_RNvMs3_NtCsjN0pppA1BUl_14aegis_compiler5typesNtB5_7TypeEnv9pop_scope
FNDA:2,_RNvXs_NtCsjN0pppA1BUl_14aegis_compiler5typesNtB4_2TyNtNtCsbNKrcpplAYV_4core3fmt7Display3fmt
FNDA:6,_RNCNvMNtCsjN0pppA1BUl_14aegis_compiler5typesNtB4_2Ty13is_subtype_of0B6_
FNDA:0,_RNCNvXs_NtCsjN0pppA1BUl_14aegis_compiler5typesNtB6_2TyNtNtCsbNKrcpplAYV_4core3fmt7Display3fmt0B8_
FNDA:0,_RNCNvXs_NtCsjN0pppA1BUl_14aegis_compiler5typesNtB6_2TyNtNtCsbNKrcpplAYV_4core3fmt7Display3fmts_0B8_
FNF:65
FNH:61
DA:64,25
DA:65,9
DA:66,25
DA:69,25
DA:71,99
DA:72,66
DA:73,99
DA:75,33
DA:76,33
DA:77,33
DA:79,21
DA:80,21
DA:81,21
DA:83,51
DA:84,51
DA:85,51
DA:87,7
DA:88,7
DA:89,7
DA:92,6
DA:93,6
DA:94,3
DA:95,3
DA:97,6
DA:107,49
DA:108,49
DA:109,12
DA:110,37
DA:111,37
DA:113,6
DA:115,3
DA:117,5
DA:119,6
DA:121,2
DA:122,2
DA:123,2
DA:124,13
DA:126,49
DA:130,26
DA:131,26
DA:132,26
DA:133,16
DA:134,0
DA:135,5
DA:136,5
DA:137,0
DA:139,0
DA:140,0
DA:141,0
DA:142,0
DA:143,0
DA:144,0
DA:145,0
DA:147,0
DA:148,0
DA:149,0
DA:151,0
DA:152,0
DA:153,0
DA:154,0
DA:155,0
DA:157,26
DA:183,0
DA:184,0
DA:185,0
DA:189,212
DA:190,212
DA:191,212
DA:192,212
DA:193,212
DA:194,212
DA:195,212
DA:205,0
DA:206,0
DA:207,0
DA:211,89
DA:212,89
DA:213,89
DA:214,89
DA:215,89
DA:216,89
DA:217,89
DA:218,89
DA:221,89
DA:222,89
DA:226,89
DA:227,89
DA:228,89
DA:229,89
DA:230,89
DA:231,89
DA:232,89
DA:233,89
DA:234,89
DA:235,89
DA:236,89
DA:237,89
DA:238,89
DA:242,89
DA:243,89
DA:244,89
DA:245,89
DA:246,89
DA:247,89
DA:248,89
DA:250,89
DA:252,123
DA:253,123
DA:254,123
DA:256,122
DA:257,122
DA:258,122
DA:259,122
DA:261,84
DA:262,84
DA:263,84
DA:266,10
DA:267,15
DA:268,15
DA:269,6
DA:270,9
DA:272,4
DA:273,10
DA:276,12
DA:277,12
DA:278,12
DA:279,4
DA:280,8
DA:282,8
DA:283,12
DA:286,5
DA:287,11
DA:288,11
DA:289,3
DA:290,8
DA:292,2
DA:293,5
DA:295,12
DA:296,12
DA:297,12
DA:299,67
DA:300,67
DA:301,67
DA:303,5
DA:304,5
DA:305,5
DA:307,7
DA:308,7
DA:309,7
DA:310,7
DA:311,7
DA:319,41
DA:320,41
DA:321,41
DA:322,12
DA:323,12
DA:324,12
DA:325,12
DA:326,12
DA:327,12
DA:328,26
DA:329,26
DA:330,26
DA:331,2
DA:332,2
DA:333,2
DA:338,1
DA:339,1
DA:340,1
DA:341,1
DA:342,1
DA:343,1
DA:344,1
DA:347,1
DA:348,1
DA:349,1
DA:350,1
DA:351,1
DA:354,1
DA:355,1
DA:356,1
DA:357,1
DA:358,1
DA:361,1
DA:362,1
DA:363,1
DA:364,1
DA:365,1
DA:368,1
DA:369,1
DA:370,1
DA:371,1
DA:372,1
DA:373,1
DA:376,1
DA:377,1
DA:378,1
DA:379,1
DA:380,1
DA:382,1
DA:383,1
DA:384,1
DA:387,1
DA:390,1
DA:391,1
DA:392,1
DA:393,1
DA:394,1
DA:399,1
DA:400,1
DA:401,1
DA:402,1
DA:403,1
DA:404,1
DA:407,1
DA:408,1
DA:409,1
DA:410,1
DA:411,1
DA:412,1
DA:415,1
DA:416,1
DA:417,1
DA:418,1
DA:419,1
DA:420,1
DA:421,1
DA:424,1
DA:425,1
DA:426,1
DA:427,1
DA:430,1
DA:431,1
DA:432,1
DA:433,1
DA:434,1
DA:435,1
DA:438,1
DA:439,1
DA:440,1
DA:441,1
DA:442,1
DA:443,1
DA:446,1
DA:448,1
DA:449,1
DA:450,1
DA:453,1
DA:455,1
DA:456,1
DA:457,1
DA:460,1
DA:461,1
DA:462,1
DA:463,1
DA:466,1
DA:467,1
DA:468,1
DA:469,1
DA:470,1
DA:471,1
DA:474,1
DA:475,1
DA:476,1
DA:481,1
DA:482,1
DA:483,1
DA:484,1
DA:487,1
DA:488,1
DA:489,1
DA:490,1
DA:493,1
DA:494,1
DA:495,1
DA:496,1
DA:499,1
DA:500,1
DA:501,1
DA:502,1
DA:505,1
DA:506,1
DA:507,1
DA:508,1
DA:511,1
DA:512,1
DA:513,1
DA:514,1
DA:515,1
DA:518,1
DA:519,1
DA:520,1
DA:521,1
DA:522,1
DA:523,1
DA:524,1
DA:527,1
DA:528,1
DA:529,1
DA:530,1
DA:531,1
DA:532,1
DA:533,1
DA:534,1
DA:537,1
DA:538,1
DA:539,1
DA:540,1
DA:541,1
DA:542,1
DA:543,1
DA:546,1
DA:547,1
DA:548,1
DA:549,1
DA:550,1
DA:551,1
DA:552,1
DA:555,1
DA:556,1
DA:557,1
DA:558,1
DA:559,1
DA:562,1
DA:563,1
DA:564,1
DA:565,1
DA:566,1
DA:567,1
DA:568,1
DA:569,1
DA:570,1
DA:571,1
DA:572,1
DA:575,1
DA:576,1
DA:577,1
DA:578,1
DA:579,1
DA:580,1
DA:581,1
DA:582,1
DA:583,1
DA:586,1
DA:587,1
DA:588,1
DA:589,1
DA:592,1
DA:593,1
DA:594,1
DA:595,0
DA:597,1
DA:598,0
DA:600,1
DA:601,1
BRF:0
BRH:0
LF:358
LH:331
end_of_record